cnltk.probability
FreqDist
p0
((dp1
S'secondly'
p2
I1
sS'frankanderic'
p3
I2
sS'limited'
p4
I2
sS'all'
p5
I40
sS'facilities'
p6
I1
sS'hata'
p7
I1
sS'saved'
p8
I3
sS'looking'
p9
I6
sS'replacements'
p10
I1
sS'aug'
p11
I2
sS'eligible'
p12
I8
sS'harshana'
p13
I1
sS'udawa'
p14
I1
sS'under'
p15
I48
sS'sorry'
p16
I199
sS'pride'
p17
I1
sS'updated'
p18
I7
sS'activation'
p19
I9
sS'pramadayata'
p20
I1
sS'asanka'
p21
I4
sS'every'
p22
I5
sS'updates'
p23
I5
sS'manik'
p24
I1
sS'dulanjaya'
p25
I1
sS'bringing'
p26
I4
sS'encounter'
p27
I2
sS'ranindu'
p28
I2
sS'prize'
p29
I2
sS'anujith'
p30
I1
sS'ref'
p31
I9
sS'fowarded'
p32
I1
sS'solution'
p33
I10
sS'no.1'
p34
I1
sS'enhance'
p35
I1
sS'rechable'
p36
I1
sS'sachin'
p37
I1
sS'bevan'
p38
I1
sS'enjoy'
p39
I9
sS'speck'
p40
I1
sS'sumran'
p41
I2
sS'nohaki'
p42
I1
sS'guidelines'
p43
I3
sS'direct'
p44
I3
sS'second'
p45
I3
sS'caused.we'
p46
I3
sS'follow'
p47
I4
sS'chandana'
p48
I1
sS'warne'
p49
I1
sS'chek'
p50
I2
sS'topup'
p51
I1
sS'even'
p52
I6
sS'errors'
p53
I2
sS'chamikara'
p54
I1
sS'perday'
p55
I1
sS'complexities'
p56
I1
sS'selected'
p57
I1
sS'asia'
p58
I1
sS'ringin'
p59
I2
sS'above'
p60
I48
sS'gbvalidity'
p61
I1
sS'new'
p62
I29
sS'ever'
p63
I1
sS'extremly'
p64
I2
sS'hero'
p65
I2
sS'zack'
p66
I1
sS'nawa'
p67
I1
sS'men'
p68
I5
sS'here'
p69
I1
sS'thamaru'
p70
I1
sS'met'
p71
I1
sS'active'
p72
I7
sS'path'
p73
I3
sS'methodvia'
p74
I1
sS'digits'
p75
I2
sS'balance'
p76
I2
sS'anjula'
p77
I3
sS'elaborate'
p78
I55
sS'omal'
p79
I1
sS'gayathri'
p80
I1
sS'hansa'
p81
I2
sS'credit'
p82
I9
sS'omar'
p83
I1
sS'indranatha'
p84
I1
sS'browsing'
p85
I1
sS'pack'
p86
I5
sS'settled'
p87
I5
sS'search'
p88
I3
sS'highly'
p89
I5
sS'patience'
p90
I6
sS'total'
p91
I8
sS'karamin'
p92
I1
sS'unit'
p93
I2
sS'prashan'
p94
I3
sS'spoke'
p95
I1
sS'would'
p96
I32
sS'browse'
p97
I1
sS'chamith'
p98
I1
sS'same.also'
p99
I1
sS'negative'
p100
I2
sS'chargers'
p101
I1
sS'call'
p102
I18
sS'therefore'
p103
I1
sS'recommend'
p104
I3
sS'type'
p105
I16
sS'until'
p106
I9
sS'relay'
p107
I3
sS'siduwuya'
p108
I1
sS'suggesstion'
p109
I1
sS'it'
p110
I62
sS'yogendiran'
p111
I1
sS'phone'
p112
I25
sS'moin'
p113
I1
sS'hold'
p114
I4
sS'tariff'
p115
I1
sS'blocking'
p116
I2
sS'must'
p117
I6
sS'me'
p118
I9
sS'zayeem'
p119
I1
sS'rights'
p120
I2
sS'below.to'
p121
I2
sS'mj'
p122
I1
sS'movies'
p123
I1
sS'itself'
p124
I1
sS'transparency'
p125
I3
sS'my'
p126
I17
sS'wana'
p127
I1
sS'give'
p128
I6
sS'appologies'
p129
I1
sS'rs.249'
p130
I1
sS'india'
p131
I1
sS'implementations'
p132
I1
sS'indicates'
p133
I1
sS'indies'
p134
I1
sS'want'
p135
I5
sS'times'
p136
I2
sS'ones'
p137
I3
sS'end'
p138
I8
sS'chanaka'
p139
I1
sS'turn'
p140
I1
sS'provide'
p141
I39
sS'verify'
p142
I7
sS'travel'
p143
I2
sS'feature'
p144
I10
sS'refrence'
p145
I1
sS'machine'
p146
I2
sS'how'
p147
I19
sS'hot'
p148
I1
sS'rewind'
p149
I1
sS'answer'
p150
I5
sS'if'
p151
I531
sS'charging'
p152
I1
sS'gaming'
p153
I1
sS'ourlions'
p154
I7
sS'kalana'
p155
I1
sS'sajith'
p156
I1
sS'shiyam'
p157
I2
sS'replacing'
p158
I2
sS'earlier'
p159
I16
sS'loyalty'
p160
I12
sS'sanka'
p161
I4
sS'hence'
p162
I17
sS'sohan'
p163
I2
sS'purchase'
p164
I9
sS'effective'
p165
I3
sS'appreciate'
p166
I305
sS'think'
p167
I2
sS'supermarkets'
p168
I1
sS'maintain'
p169
I3
sS'ultimate'
p170
I2
sS'suggest'
p171
I5
sS'first'
p172
I11
sS'order'
p173
I119
sS'fifa'
p174
I1
sS'virivaagak'
p175
I1
sS'office'
p176
I1
sS'consent'
p177
I2
sS'over'
p178
I9
sS'vary'
p179
I1
sS'satisfied'
p180
I1
sS'supun'
p181
I3
sS'telecasting'
p182
I7
sS'japan'
p183
I1
sS'activating'
p184
I2
sS'before'
p185
I8
sS'ima'
p186
I3
sS'wuwa'
p187
I1
sS'irsth'
p188
I1
sS'connec'
p189
I1
sS'personal'
p190
I1
sS'sahaya'
p191
I8
sS'fix'
p192
I5
sS'ikmaweema'
p193
I1
sS'writing'
p194
I1
sS'better'
p195
I34
sS'tagging'
p196
I1
sS'weeks'
p197
I1
sS'anushka'
p198
I1
sS'easier'
p199
I1
sS'then'
p200
I4
sS'them'
p201
I1
sS'affected'
p202
I1
sS'minuka'
p203
I3
sS'press'
p204
I1
sS'band'
p205
I3
sS'anncy'
p206
I1
sS'they'
p207
I26
sS'akila'
p208
I1
sS'rental'
p209
I7
sS'ther'
p210
I1
sS'bank'
p211
I12
sS'taufel'
p212
I1
sS'alex'
p213
I1
sS'usman'
p214
I1
sS'rajitha'
p215
I7
sS'notified'
p216
I2
sS'rifai'
p217
I3
sS'willing'
p218
I1
sS'sidu'
p219
I1
sS'eranga'
p220
I14
sS'disconnection'
p221
I4
sS'good'
p222
I4
sS'victory'
p223
I6
sS'entitled'
p224
I3
sS'side'
p225
I2
sS'nayanathara'
p226
I1
sS'sahad'
p227
I1
sS'sahan'
p228
I3
sS'series'
p229
I3
sS'train'
p230
I1
sS'upload'
p231
I1
sS'celebrating'
p232
I1
sS'milan'
p233
I3
sS'dulaj'
p234
I1
sS'hosted'
p235
I1
sS'comedies'
p236
I11
sS'network'
p237
I25
sS'thinura'
p238
I2
sS'rs'
p239
I16
sS'quality'
p240
I6
sS'cameras'
p241
I1
sS'sms'
p242
I56
sS'monitor'
p243
I1
sS'content'
p244
I3
sS're'
p245
I3
sS'nayaken'
p246
I1
sS'dsi'
p247
I1
sS'got'
p248
I7
sS'ofcourse'
p249
I2
sS'independence'
p250
I1
sS'telecommunication'
p251
I6
sS'assured'
p252
I8
sS'resume'
p253
I1
sS'given'
p254
I16
sS'free'
p255
I27
sS'standard'
p256
I10
sS'campaigns'
p257
I1
sS'kaveen'
p258
I3
sS'duratath'
p259
I2
sS'lahiru'
p260
I6
sS'saha'
p261
I7
sS'messages'
p262
I18
sS'days'
p263
I15
sS'isuru'
p264
I8
sS'signature'
p265
I1
sS'isura'
p266
I4
sS'onto'
p267
I2
sS'speeds'
p268
I2
sS'package.eligible'
p269
I1
sS'kaumadhi'
p270
I1
sS'already'
p271
I28
sS'features'
p272
I3
sS'reconnected'
p273
I1
sS'primary'
p274
I7
sS'system'
p275
I6
sS'restrict'
p276
I1
sS'another'
p277
I2
sS'siduwanu'
p278
I1
sS'dennemu'
p279
I3
sS'service'
p280
I56
sS'attach'
p281
I1
sS'top'
p282
I6
sS'rs.690.please'
p283
I1
sS'needed'
p284
I1
sS'rates'
p285
I5
sS'too'
p286
I5
sS'aaseem'
p287
I3
sS'tool'
p288
I1
sS'villages'
p289
I1
sS'albert'
p290
I1
sS'took'
p291
I1
sS'rectified'
p292
I7
sS'fawzan'
p293
I2
sS'maintaining'
p294
I1
sS'white'
p295
I2
sS'begins'
p296
I1
sS'masroor'
p297
I2
sS'saeed'
p298
I1
sS'prasanna'
p299
I1
sS'enabled'
p300
I1
sS'rate'
p301
I19
sS'nations'
p302
I1
sS'matter'
p303
I6
sS'obata'
p304
I11
sS'jehan'
p305
I3
sS'tion'
p306
I1
sS'welcomewe'
p307
I2
sS'mini'
p308
I1
sS'youre'
p309
I39
sS'lasanka'
p310
I4
sS'raees'
p311
I1
sS'mins'
p312
I1
sS'tells'
p313
I1
sS'latency'
p314
I1
sS'strength'
p315
I2
sS'genuine'
p316
I1
sS'mostly'
p317
I2
sS'relayed'
p318
I5
sS'apahasuthawayak'
p319
I2
sS'convenient'
p320
I2
sS'axiata'
p321
I1
sS'responsible'
p322
I5
sS'divulge'
p323
I1
sS'recommended'
p324
I1
sS'causing'
p325
I2
sS'rasheen'
p326
I1
sS'indrajith'
p327
I3
sS'katsper_'
p328
I1
sS'eloborate'
p329
I1
sS'wimbledon2019'
p330
I1
sS'rs.500'
p331
I1
sS'shall'
p332
I9
sS'bruce'
p333
I1
sS'simulated'
p334
I1
sS'what'
p335
I15
sS'madusanka'
p336
I1
sS'welcome.we'
p337
I5
sS'letter'
p338
I6
sS'phase'
p339
I1
sS'the'
p340
I2380
sS'maria'
p341
I4
sS'zealand'
p342
I2
sS'singer'
p343
I2
sS'rogers'
p344
I1
sS'nishan'
p345
I1
sS'consumed'
p346
I5
sS'nighttime'
p347
I1
sS'sandun'
p348
I17
sS'appwebonline'
p349
I3
sS'points'
p350
I23
sS'ahlam'
p351
I1
sS'responded'
p352
I8
sS'incomplete'
p353
I1
sS'bumbalapitiya'
p354
I1
sS'contacted'
p355
I3
sS'prasath'
p356
I1
sS'pops'
p357
I1
sS'colors'
p358
I2
sS'stepping'
p359
I1
sS'earth'
p360
I1
sS'availability'
p361
I3
sS'ungal'
p362
I3
sS'rs.345'
p363
I1
sS'ekaka'
p364
I1
sS'lights'
p365
I1
sS'menu'
p366
I3
sS'explain'
p367
I1
sS'appreciated'
p368
I8
sS'lodge'
p369
I28
sS'do'
p370
I152
sS'dm'
p371
I729
sS'di'
p372
I1
sS'johanns'
p373
I2
sS'watch'
p374
I13
sS'saiyaf'
p375
I2
sS'da'
p376
I1
sS'arjun'
p377
I2
sS'thanushan'
p378
I1
sS'reinstall'
p379
I2
sS'ema'
p380
I1
sS'covering'
p381
I2
sS'nomathi'
p382
I2
sS'reload'
p383
I20
sS'bad'
p384
I8
sS'dilhani'
p385
I1
sS'well.please'
p386
I1
sS'release'
p387
I1
sS'automatic'
p388
I1
sS'require'
p389
I3
sS'ilakaththai'
p390
I1
sS'reference'
p391
I70
sS'testing'
p392
I1
sS'reefer'
p393
I1
sS'esclated'
p394
I1
sS'recieve'
p395
I3
sS'depends'
p396
I5
sS'num'
p397
I5
sS'result'
p398
I1
sS'slvspak'
p399
I2
sS'best'
p400
I11
sS'said'
p401
I17
sS'capacity'
p402
I1
sS'ishy'
p403
I3
sS'unable'
p404
I33
sS'dishan'
p405
I1
sS'discovery'
p406
I2
sS'we'
p407
I746
sS'never'
p408
I1
sS'terms'
p409
I1
sS'nature'
p410
I1
sS'blaster'
p411
I8
sS'confusion'
p412
I1
sS'nawathweemata'
p413
I1
sS'however'
p414
I50
sS'ww'
p415
I1
sS'unfold'
p416
I1
sS'downgrade'
p417
I2
sS'news'
p418
I4
sS'packages'
p419
I40
sS'improve'
p420
I4
sS'faced'
p421
I8
sS'received'
p422
I19
sS'deepavali'
p423
I1
sS'weemata'
p424
I2
sS'definistion'
p425
I1
sS'adapter'
p426
I1
sS'faleel'
p427
I2
sS'against'
p428
I7
sS'games'
p429
I1
sS'gamer'
p430
I1
sS'karaganimata'
p431
I1
sS'login'
p432
I1
sS'inconvenance'
p433
I1
sS'bran'
p434
I1
sS'con'
p435
I1
sS'and'
p436
I788
sS'tone'
p437
I2
sS'miscommunication'
p438
I3
sS'rupavahini'
p439
I1
sS'packages.postpaid'
p440
I1
sS'ajitha'
p441
I1
sS'written'
p442
I4
sS'trust'
p443
I2
sS'esim'
p444
I4
sS'billing'
p445
I7
sS'binge'
p446
I1
sS'three'
p447
I1
sS'been'
p448
I88
sS'commission'
p449
I1
sS'savin'
p450
I1
sS'much'
p451
I21
sS'interest'
p452
I1
sS'entered'
p453
I1
sS'lovely'
p454
I1
sS'sanchala'
p455
I1
sS'forward.also'
p456
I1
sS'website'
p457
I4
sS'life'
p458
I4
sS'yusuf'
p459
I1
sS'gishan'
p460
I1
sS'naya'
p461
I1
sS'thibeda'
p462
I1
sS'dave'
p463
I2
sS'catch'
p464
I9
sS'applied'
p465
I6
sS'save'
p466
I6
sS'karannemu'
p467
I2
sS'micheal'
p468
I1
sS'asanga'
p469
I2
sS'sambanda'
p470
I1
sS'voice'
p471
I12
sS'themiya'
p472
I3
sS'mistake'
p473
I1
sS'reactivated'
p474
I1
sS'chandima'
p475
I1
sS'sticker'
p476
I1
sS'accessories'
p477
I1
sS'player'
p478
I1
sS'cant'
p479
I1
sS'in'
p480
I236
sS'azeera'
p481
I1
sS'id'
p482
I3
sS'conn'
p483
I1
sS'surcharge'
p484
I3
sS'things'
p485
I2
sS'make'
p486
I15
sS'amount'
p487
I14
sS'any'
p488
I236
sS'jennive'
p489
I1
sS'evaluate'
p490
I1
sS'dhammika'
p491
I1
sS'several'
p492
I3
sS'dilum'
p493
I1
sS'european'
p494
I1
sS'satellite'
p495
I6
sS'nic'
p496
I129
sS'nasir'
p497
I2
sS'social'
p498
I13
sS'rain'
p499
I2
sS'possible'
p500
I25
sS'cincern'
p501
I1
sS'portal'
p502
I3
sS'gaitonde'
p503
I1
sS'ownership'
p504
I3
sS'cycle'
p505
I4
sS'mentioning'
p506
I1
sS'shortly'
p507
I6
sS'scenario'
p508
I2
sS'programs'
p509
I2
sS'changes'
p510
I3
sS'humble'
p511
I3
sS'game'
p512
I5
sS'diliki'
p513
I1
sS'contact'
p514
I155
sS'roma'
p515
I1
sS'yourt'
p516
I1
sS'corporate'
p517
I2
sS'yours'
p518
I28
sS'left'
p519
I1
sS'seasonal'
p520
I6
sS'kala'
p521
I2
sS'just'
p522
I1
sS'illana'
p523
I1
sS'cricketer'
p524
I3
sS'sharanya'
p525
I1
sS'assigned'
p526
I12
sS'sadaha'
p527
I4
sS'thanks'
p528
I18
sS'yes'
p529
I52
sS'yet'
p530
I6
sS'mohamed'
p531
I9
sS'previous'
p532
I5
sS'adding'
p533
I2
sS'enters'
p534
I1
sS'instance'
p535
I2
sS'ease'
p536
I1
sS'had'
p537
I15
sS'channels'
p538
I28
sS'whatsapp'
p539
I1
sS'has'
p540
I94
sS'nifras'
p541
I2
sS'municipal'
p542
I1
sS'elders'
p543
I1
sS'breaks'
p544
I1
sS'athanma'
p545
I1
sS'sanin'
p546
I1
sS'replace'
p547
I2
sS'induneshan'
p548
I1
sS'apart'
p549
I1
sS'maajith'
p550
I1
sS'appearing'
p551
I1
sS'rukshan'
p552
I4
sS'gift'
p553
I1
sS'bpl'
p554
I1
sS'specific'
p555
I7
sS'disconnects'
p556
I1
sS'steps'
p557
I5
sS'night'
p558
I8
sS'preorders'
p559
I2
sS'beneficial'
p560
I1
sS'right'
p561
I1
sS'old'
p562
I3
sS'people'
p563
I4
sS'successfully'
p564
I3
sS'feel'
p565
I4
sS'eken'
p566
I1
sS'kajankowsik'
p567
I2
sS'oultet'
p568
I1
sS'invoice'
p569
I2
sS'incontinence'
p570
I1
sS'ranuka'
p571
I3
sS'for'
p572
I712
sS'wuwahoth'
p573
I1
sS'cheked'
p574
I1
sS'notification'
p575
I2
sS'chandun'
p576
I1
sS'normal'
p577
I6
sS'fox'
p578
I2
sS'haka.1'
p579
I1
sS'everything'
p580
I3
sS'faazel'
p581
I1
sS'foc'
p582
I2
sS'maliki'
p583
I1
sS'christmas'
p584
I1
sS'janith'
p585
I1
sS'pls'
p586
I34
sS'subscriptions'
p587
I1
sS'tour'
p588
I11
sS'pilibandawada'
p589
I4
sS'constructive'
p590
I1
sS'discount'
p591
I2
sS'promos'
p592
I2
sS'sadiq'
p593
I1
sS'post'
p594
I7
sS'super'
p595
I1
sS'notice.we'
p596
I1
sS'limitation'
p597
I1
sS'nelum'
p598
I1
sS'months'
p599
I7
sS'oba'
p600
I10
sS'rooshan'
p601
I1
sS'plus'
p602
I5
sS'muheeth'
p603
I1
sS'kbps'
p604
I1
sS'book'
p605
I1
sS'automatically'
p606
I2
sS'raised'
p607
I19
sS'ransara'
p608
I1
sS'whats'
p609
I1
sS'ussd'
p610
I3
sS'facility'
p611
I2
sS'EMO_NEG'
p612
I2
sS'ruzaik'
p613
I1
sS'two'
p614
I9
sS'down'
p615
I4
sS'sos'
p616
I1
sS'dilantha'
p617
I2
sS'malcom'
p618
I1
sS'janu'
p619
I1
sS'segment'
p620
I1
sS'support'
p621
I7
sS'nova'
p622
I1
sS'avail'
p623
I2
sS'accordingly'
p624
I24
sS'wordpress'
p625
I1
sS'authorized'
p626
I2
sS'way'
p627
I5
sS'naught'
p628
I1
sS'was'
p629
I39
sS'happy'
p630
I13
sS'lowest'
p631
I1
sS'head'
p632
I2
sS'form'
p633
I3
sS'offer'
p634
I59
sS'hear'
p635
I9
sS'decoder'
p636
I2
sS'sanik'
p637
I9
sS'removed'
p638
I2
sS'details.inorder'
p639
I1
sS'sent'
p640
I11
sS'barista'
p641
I1
sS'miyuru'
p642
I2
sS'attached'
p643
I1
sS'maximum'
p644
I3
sS'devices'
p645
I3
sS'iphone11pro'
p646
I1
sS'csweek2019'
p647
I4
sS'vidura'
p648
I1
sS'complications'
p649
I1
sS'delete'
p650
I1
sS'inclusive'
p651
I4
sS'casued'
p652
I1
sS'covers'
p653
I2
sS'sometime'
p654
I5
sS'request'
p655
I32
sS'download'
p656
I4
sS'yasiru'
p657
I2
sS'check'
p658
I464
sS'physical'
p659
I1
sS'possbile'
p660
I1
sS'no'
p661
I39
sS'when'
p662
I19
sS'holding'
p663
I1
sS'test'
p664
I4
sS'labunu'
p665
I2
sS'piyumi'
p666
I1
sS'fathima'
p667
I1
sS'relecant'
p668
I1
sS'welcome'
p669
I80
sS'update'
p670
I38
sS'jalitha'
p671
I1
sS'cpould'
p672
I1
sS'authorities'
p673
I1
sS'sthuthi'
p674
I1
sS'aliasge'
p675
I1
sS'ums'
p676
I1
sS'apology'
p677
I1
sS'glass'
p678
I1
sS'reqested'
p679
I2
sS'daily'
p680
I8
sS'icc'
p681
I1
sS'reception'
p682
I4
sS'time'
p683
I69
sS'lineup'
p684
I1
sS'haripriya'
p685
I1
sS'winnings'
p686
I1
sS'nisala'
p687
I12
sS'ankaya'
p688
I3
sS'activated'
p689
I23
sS'tharindu'
p690
I7
sS'roy'
p691
I3
sS'nathinam'
p692
I2
sS'coudl'
p693
I1
sS'nawran'
p694
I1
sS'recharge'
p695
I5
sS'depend'
p696
I4
sS'clarification'
p697
I1
sS'suthanthiranathan'
p698
I1
sS'graph'
p699
I1
sS'flash'
p700
I1
sS'rengasamy'
p701
I1
sS'netball'
p702
I1
sS'sarahxm'
p703
I1
sS'countdown'
p704
I1
sS'answered'
p705
I1
sS'finally'
p706
I1
sS'kolitha'
p707
I5
sS'permanently'
p708
I1
sS'addon'
p709
I1
sS'division'
p710
I31
sS'smartphone'
p711
I1
sS'prepaid'
p712
I10
sS'kumar'
p713
I1
sS'choice'
p714
I3
sS'trouble'
p715
I1
sS'exact'
p716
I43
sS'jshabry'
p717
I1
sS'raashid'
p718
I2
sS'zalmi'
p719
I3
sS'level'
p720
I1
sS'did'
p721
I16
sS'solved'
p722
I3
sS'settle'
p723
I6
sS'team'
p724
I134
sS'added'
p725
I5
sS'fprward'
p726
I1
sS'prevent'
p727
I1
sS'assistnce'
p728
I1
sS'regret'
p729
I11
sS'amila'
p730
I2
sS'bambalapitya'
p731
I1
sS'ashan'
p732
I1
sS'arshath'
p733
I1
sS'cost'
p734
I2
sS'port'
p735
I3
sS'assistance'
p736
I38
sS'current'
p737
I12
sS'sharee'
p738
I1
sS'shared'
p739
I8
sS'raveen'
p740
I1
sS'celebrates'
p741
I1
sS'install'
p742
I1
sS'vidula'
p743
I1
sS'please.1'
p744
I1
sS'v'
p745
I1
sS'understanding'
p746
I2
sS'downloaded'
p747
I1
sS'upgrade'
p748
I6
sS'address'
p749
I23
sS'along'
p750
I31
sS'arjuna'
p751
I1
sS'appears'
p752
I2
sS'change'
p753
I11
sS'wait'
p754
I2
sS'preorder'
p755
I6
sS'hbo'
p756
I1
sS'redemption'
p757
I1
sS'irshad'
p758
I1
sS'shift'
p759
I1
sS'eke'
p760
I1
sS'jay'
p761
I2
sS'step'
p762
I2
sS'eka'
p763
I31
sS'hbb'
p764
I9
sS'queue'
p765
I2
sS'suggestion'
p766
I23
sS'boo'
p767
I2
sS'usually'
p768
I2
sS't20'
p769
I9
sS'apprecite'
p770
I1
sS'chamika'
p771
I1
sS'inconvience'
p772
I1
sS'love'
p773
I1
sS'extra'
p774
I3
sS'prefer'
p775
I1
sS'sincerely'
p776
I11
sS'fake'
p777
I3
sS'handled'
p778
I1
sS'working'
p779
I25
sS'vowifi'
p780
I4
sS'mehi'
p781
I1
sS'visit'
p782
I21
sS'sports'
p783
I6
sS'live'
p784
I8
sS'iphone'
p785
I18
sS'isama'
p786
I1
sS'criteria'
p787
I1
sS'black'
p788
I1
sS'today'
p789
I8
sS'sharing'
p790
I13
sS'sessions'
p791
I1
sS'towers'
p792
I1
sS'yoshitha'
p793
I4
sS'validity'
p794
I6
sS'shafrul'
p795
I1
sS'manoraj'
p796
I1
sS'apahasuthawayata'
p797
I1
sS'behalf'
p798
I3
sS'valued'
p799
I1
sS'relodge'
p800
I1
sS'malinda'
p801
I1
sS'hussey'
p802
I1
sS'car'
p803
I1
sS'cap'
p804
I1
sS'can'
p805
I192
sS'slowness'
p806
I2
sS'following'
p807
I26
sS'making'
p808
I3
sS'nearest'
p809
I7
sS'dedicated'
p810
I1
sS'valentines'
p811
I1
sS'stream'
p812
I4
sS'december'
p813
I13
sS'agent'
p814
I5
sS'council'
p815
I1
sS'tiran'
p816
I2
sS'occur'
p817
I1
sS'gayan'
p818
I4
sS'ramesh'
p819
I2
sS'requirements'
p820
I1
sS'winter'
p821
I1
sS'till'
p822
I10
sS'sunday'
p823
I1
sS'damana'
p824
I1
sS'esims'
p825
I1
sS'themiiya'
p826
I1
sS'madushan'
p827
I1
sS'obawa'
p828
I1
sS'ruchaka'
p829
I1
sS'product'
p830
I3
sS'bawa'
p831
I5
sS'same.1'
p832
I3
sS'may'
p833
I42
sS'max'
p834
I1
sS'spot'
p835
I1
sS'danum'
p836
I5
sS'wanne'
p837
I2
sS'membership'
p838
I2
sS'birthday'
p839
I4
sS'designed'
p840
I10
sS'date'
p841
I23
sS'such'
p842
I12
sS'data'
p843
I150
sS'accordingly.1'
p844
I1
sS'reseller'
p845
I1
sS'ss'
p846
I1
sS'sr'
p847
I1
sS'nehavarshney'
p848
I2
sS'inform'
p849
I27
sS'mango'
p850
I1
sS'so'
p851
I65
sS'deposit'
p852
I2
sS'sl'
p853
I1
sS'hassan'
p854
I1
sS'representation'
p855
I1
sS'talk'
p856
I1
sS'sd'
p857
I7
sS'refund'
p858
I6
sS'exclusive'
p859
I3
sS'tagged'
p860
I3
sS'serving'
p861
I1
sS'words'
p862
I2
sS'uopdate'
p863
I1
sS'samitha'
p864
I6
sS'deactivated'
p865
I1
sS'displayed'
p866
I1
sS'walata'
p867
I1
sS'niroshan'
p868
I1
sS'damage'
p869
I1
sS'course'
p870
I3
sS'still'
p871
I19
sS'blocked'
p872
I7
sS'disconnect'
p873
I5
sS'thank'
p874
I83
sS'techstrome'
p875
I1
sS'fayaz'
p876
I2
sS'platform'
p877
I1
sS'offers'
p878
I6
sS'requir'
p879
I1
sS'ours'
p880
I2
sS'deducting'
p881
I1
sS'main'
p882
I1
sS'appbank'
p883
I3
sS'happened'
p884
I1
sS'non'
p885
I1
sS'qualifies'
p886
I1
sS'unveiling'
p887
I1
sS'matches'
p888
I4
sS'sherine'
p889
I1
sS'introduce'
p890
I1
sS'records'
p891
I1
sS'mbb'
p892
I1
sS'subscribers'
p893
I1
sS'recap'
p894
I2
sS'sorted'
p895
I10
sS'nov'
p896
I1
sS'now'
p897
I37
sS'thilina'
p898
I2
sS'expedite'
p899
I1
sS'possess'
p900
I1
sS'wont'
p901
I1
sS'name'
p902
I8
sS'nilmini'
p903
I1
sS'january'
p904
I3
sS'drop'
p905
I2
sS'revert'
p906
I9
sS'possibilities'
p907
I2
sS'nathesh'
p908
I2
sS'h'
p909
I2
sS'thamuru'
p910
I1
sS'semifinal'
p911
I1
sS'individually'
p912
I1
sS'bathiya'
p913
I3
sS'reshan'
p914
I1
sS'pawathina'
p915
I2
sS'eg'
p916
I1
sS'revised'
p917
I1
sS'tharux'
p918
I1
sS'replay'
p919
I1
sS'entering'
p920
I1
sS'ez'
p921
I2
sS'happen'
p922
I3
sS'requesting'
p923
I1
sS'ep'
p924
I1
sS'nuzrad'
p925
I2
sS'plans'
p926
I6
sS'shown'
p927
I2
sS'tharuka'
p928
I1
sS'furthermore'
p929
I3
sS'interference'
p930
I8
sS'increase'
p931
I1
sS'rs.199'
p932
I1
sS'investigation'
p933
I4
sS'internet'
p934
I9
sS'sanjana'
p935
I3
sS'receiving'
p936
I4
sS'correct'
p937
I9
sS'nishard'
p938
I2
sS'after'
p939
I20
sS'anwar'
p940
I1
sS'dispatched'
p941
I1
sS'yours.this'
p942
I1
sS'possibility'
p943
I2
sS'apata'
p944
I1
sS'kalinga'
p945
I3
sS'unwanted'
p946
I1
sS'maheshj'
p947
I2
sS'yaqub'
p948
I1
sS'upon'
p949
I4
sS'card'
p950
I23
sS'care'
p951
I2
sS'jwp'
p952
I1
sS'initiate'
p953
I1
sS'place'
p954
I7
sS'massive'
p955
I1
sS'router'
p956
I31
sS'promotion'
p957
I4
sS'discontinued'
p958
I7
sS'frequent'
p959
I1
sS'dileepa'
p960
I1
sS'pilibadawa'
p961
I3
sS'curiosity'
p962
I1
sS'spoken'
p963
I1
sS'sourjah'
p964
I1
sS'one'
p965
I30
sS'directly'
p966
I1
sS'carry'
p967
I1
sS'xs'
p968
I1
sS'message'
p969
I24
sS'forwarding'
p970
I2
sS'open'
p971
I5
sS'tomorrow'
p972
I4
sS'little'
p973
I2
sS'checked'
p974
I15
sS'krishmal'
p975
I2
sS'authentic'
p976
I1
sS'dawns'
p977
I1
sS'indika'
p978
I6
sS'physically'
p979
I1
sS'walid'
p980
I1
sS'offsderanas'
p981
I1
sS'friend'
p982
I4
sS'information.kindly'
p983
I1
sS'incconvinces'
p984
I1
sS'shifan'
p985
I1
sS'mema'
p986
I2
sS'hub'
p987
I5
sS'that'
p988
I518
sS'idam'
p989
I1
sS'season'
p990
I1
sS'broadcast'
p991
I7
sS'released'
p992
I1
sS'nuwan'
p993
I3
sS'sarinda'
p994
I1
sS'copy'
p995
I4
sS'holder'
p996
I1
sS'than'
p997
I9
sS'inventor'
p998
I1
sS'connections'
p999
I19
sS'television'
p1000
I16
sS'nathan'
p1001
I1
sS'unfortunately'
p1002
I6
sS'dilki'
p1003
I1
sS'future'
p1004
I5
sS'iflix'
p1005
I2
sS'were'
p1006
I42
sS'cards'
p1007
I4
sS'accessed'
p1008
I2
sS'russia'
p1009
I1
sS'browser'
p1010
I1
sS'pre'
p1011
I4
sS'addressing'
p1012
I1
sS'sam'
p1013
I2
sS'pro'
p1014
I7
sS'contactable'
p1015
I1
sS'locations'
p1016
I1
sS'prestigious'
p1017
I2
sS'say'
p1018
I2
sS'rimzan'
p1019
I1
sS'uninterrupted'
p1020
I1
sS'saw'
p1021
I1
sS'ayesha'
p1022
I1
sS'dialogblaze2'
p1023
I1
sS'ngage'
p1024
I17
sS'conversion'
p1025
I3
sS'concern.appreciate'
p1026
I1
sS'note'
p1027
I388
sS'equipment'
p1028
I3
sS'adala'
p1029
I6
sS'take'
p1030
I37
sS'online'
p1031
I5
sS'holders'
p1032
I1
sS'devsini'
p1033
I1
sS'channel'
p1034
I66
sS'bets'
p1035
I1
sS'sure'
p1036
I4
sS'multiple'
p1037
I2
sS'investigations'
p1038
I3
sS'buffer'
p1039
I5
sS'price'
p1040
I5
sS'enter'
p1041
I2
sS'paid'
p1042
I7
sS'tweetupsl'
p1043
I2
sS'anushan'
p1044
I1
sS'complaints'
p1045
I3
sS'sachintha'
p1046
I2
sS'vishwa'
p1047
I6
sS'losliya'
p1048
I1
sS'wimata'
p1049
I2
sS'attempting'
p1050
I1
sS'data.time'
p1051
I1
sS'uninstall'
p1052
I2
sS'shot'
p1053
I9
sS'show'
p1054
I1
sS'ikmanin'
p1055
I1
sS'representatives'
p1056
I1
sS'colombo'
p1057
I2
sS'arrears'
p1058
I1
sS'corner'
p1059
I1
sS'feedback'
p1060
I61
sS'nazeefa'
p1061
I1
sS'slow'
p1062
I3
sS'discounts'
p1063
I6
sS'recpective'
p1064
I1
sS'examples'
p1065
I2
sS'chandimal'
p1066
I1
sS'only'
p1067
I44
sS'going'
p1068
I1
sS'int99'
p1069
I1
sS'arvind'
p1070
I1
sS'same.we'
p1071
I1
sS'osse'
p1072
I2
sS'hisham'
p1073
I1
sS'get'
p1074
I80
sS'ijaz'
p1075
I2
sS'between'
p1076
I6
sS'muna'
p1077
I3
sS'samawa'
p1078
I1
sS'irsath'
p1079
I1
sS'outlet'
p1080
I21
sS'updare'
p1081
I1
sS'geo'
p1082
I9
sS'is'
p1083
I296
sS'regarding'
p1084
I52
sS'resource'
p1085
I1
sS'settings'
p1086
I1
sS'youll'
p1087
I6
sS'celebrate'
p1088
I2
sS'borrow'
p1089
I1
sS'abans'
p1090
I1
sS'morning'
p1091
I4
sS'where'
p1092
I11
sS'communicated'
p1093
I1
sS'vision'
p1094
I7
sS'chinthaka'
p1095
I6
sS'espn'
p1096
I2
sS'gamika'
p1097
I1
sS'thirinayak'
p1098
I1
sS'anyways'
p1099
I1
sS'parking'
p1100
I1
sS'apologies'
p1101
I188
sS'calendar'
p1102
I1
sS'sport'
p1103
I1
sS'concern'
p1104
I155
sS'telecasted'
p1105
I3
sS'rs.1377'
p1106
I1
sS'ways'
p1107
I2
sS'review'
p1108
I1
sS'sites'
p1109
I7
sS'raaziya'
p1110
I1
sS'enough'
p1111
I3
sS'gazette'
p1112
I1
sS'inorder'
p1113
I6
sS'viuhub'
p1114
I1
sS'dilruk'
p1115
I1
sS'notice'
p1116
I2
sS'august'
p1117
I1
sS'screen'
p1118
I12
sS'kettukkolkindrom'
p1119
I1
sS'mihiranga'
p1120
I3
sS'awards'
p1121
I3
sS'article'
p1122
I2
sS'come'
p1123
I2
sS'rugby'
p1124
I9
sS'musthaq'
p1125
I1
sS'many'
p1126
I5
sS'according'
p1127
I9
sS'called'
p1128
I2
sS'deduction'
p1129
I1
sS'wiya'
p1130
I1
sS'spare'
p1131
I1
sS'railway'
p1132
I1
sS'prices6449anytime'
p1133
I1
sS'appreviate'
p1134
I1
sS'comes'
p1135
I2
sS'allowance'
p1136
I1
sS'udesh'
p1137
I1
sS'among'
p1138
I2
sS'color'
p1139
I1
sS'thawama'
p1140
I1
sS'period'
p1141
I8
sS'dispatch'
p1142
I1
sS'anti'
p1143
I1
sS'confirm'
p1144
I16
sS'approval'
p1145
I1
sS'prasad'
p1146
I1
sS'akeel'
p1147
I1
sS'considering'
p1148
I1
sS'west'
p1149
I1
sS'porsche'
p1150
I1
sS'informed'
p1151
I54
sS'apage'
p1152
I3
sS'waqar'
p1153
I1
sS'abdur'
p1154
I1
sS'moolamaha'
p1155
I1
sS'schoolboy'
p1156
I1
sS'enable'
p1157
I1
sS'nilesh'
p1158
I1
sS'andrew'
p1159
I2
sS'referrin'
p1160
I1
sS'external'
p1161
I1
sS'hashtag'
p1162
I2
sS'installation'
p1163
I1
sS'irrelevant'
p1164
I2
sS'those'
p1165
I3
sS'disconnected'
p1166
I13
sS'these'
p1167
I13
sS'safra'
p1168
I1
sS'cash'
p1169
I6
sS'rizbad'
p1170
I1
sS'ongoing'
p1171
I3
sS'cannot'
p1172
I9
sS'situation'
p1173
I6
sS'nafeesmn'
p1174
I1
sS'mismatch'
p1175
I3
sS'luqmaan'
p1176
I2
sS'dedicate'
p1177
I1
sS'pressing'
p1178
I1
sS'technology'
p1179
I3
sS'avilable'
p1180
I1
sS'verified'
p1181
I3
sS'doctor'
p1182
I1
sS'pay'
p1183
I3
sS's'
p1184
I1
sS'senura'
p1185
I1
sS'yamata'
p1186
I1
sS'chrishan'
p1187
I1
sS'inquiry'
p1188
I1
sS'status'
p1189
I4
sS'ifran'
p1190
I1
sS'finish'
p1191
I1
sS'screenshot'
p1192
I17
sS'singapore'
p1193
I1
sS'assist'
p1194
I319
sS'allocation'
p1195
I3
sS'advertisement'
p1196
I3
sS'changing'
p1197
I2
sS'totally'
p1198
I2
sS'cartoon'
p1199
I1
sS'rasikalink'
p1200
I1
sS'thedialog'
p1201
I1
sS'charges'
p1202
I15
sS'note10'
p1203
I1
sS'without'
p1204
I4
sS'solve'
p1205
I1
sS'launched'
p1206
I1
sS'genie'
p1207
I5
sS'model'
p1208
I34
sS'reward'
p1209
I2
sS'charged'
p1210
I10
sS'malicious'
p1211
I1
sS'pakistan'
p1212
I4
sS'being'
p1213
I11
sS'maduka'
p1214
I1
sS'actions'
p1215
I1
sS'recycled'
p1216
I1
sS'shaanu'
p1217
I1
sS'pasindu'
p1218
I6
sS'cease'
p1219
I1
sS'touch'
p1220
I19
sS'speed'
p1221
I18
sS'application'
p1222
I2
sS'seems'
p1223
I3
sS'except'
p1224
I1
sS'lets'
p1225
I2
sS'ajita'
p1226
I1
sS'momentum'
p1227
I1
sS'scheduled'
p1228
I1
sS'aspects'
p1229
I2
sS'around'
p1230
I1
sS'wish.this'
p1231
I1
sS'early'
p1232
I2
sS'preference'
p1233
I1
sS'using'
p1234
I12
sS'azky'
p1235
I2
sS'relavant'
p1236
I3
sS'musicetc'
p1237
I2
sS'facing'
p1238
I60
sS'nuzaik'
p1239
I1
sS'thameera'
p1240
I2
sS'either'
p1241
I2
sS'priyantha'
p1242
I1
sS'served'
p1243
I2
sS'nice'
p1244
I11
sS'trying'
p1245
I5
sS'dinesh'
p1246
I8
sS'competition'
p1247
I1
sS'dialogviu'
p1248
I1
sS'table'
p1249
I2
sS'tstv'
p1250
I1
sS'users'
p1251
I13
sS'provided'
p1252
I27
sS'viraj'
p1253
I4
sS'ryan'
p1254
I2
sS'models'
p1255
I1
sS'provider'
p1256
I4
sS'refer'
p1257
I49
sS'reactivating'
p1258
I2
sS'process'
p1259
I4
sS'power'
p1260
I3
sS'asap'
p1261
I20
sS'iconic'
p1262
I3
sS'roaming'
p1263
I10
sS'exciting'
p1264
I5
sS'on'
p1265
I643
sS'stone'
p1266
I1
sS'ok'
p1267
I1
sS'oh'
p1268
I1
sS'karai'
p1269
I1
sS'sri'
p1270
I29
sS'favorite'
p1271
I1
sS'ideamart'
p1272
I1
sS'shalana'
p1273
I2
sS'informing'
p1274
I1
sS'escalating'
p1275
I2
sS'shashika'
p1276
I1
sS'stand'
p1277
I8
sS'act'
p1278
I1
sS'rs.600'
p1279
I1
sS'or'
p1280
I122
sS'op'
p1281
I1
sS'upul'
p1282
I1
sS'communication'
p1283
I1
sS'image'
p1284
I3
sS'escalated'
p1285
I21
sS'ragulan'
p1286
I1
sS'references'
p1287
I1
sS'inbox'
p1288
I78
sS'parties'
p1289
I1
sS'operator'
p1290
I3
sS'your'
p1291
I864
sS'pawasanne'
p1292
I2
sS'forwarded'
p1293
I5
sS'starc'
p1294
I1
sS'area'
p1295
I5
sS'anshya'
p1296
I1
sS'there'
p1297
I78
sS'hey'
p1298
I9
sS'start'
p1299
I2
sS'compliant'
p1300
I15
sS'chamath'
p1301
I2
sS'lions'
p1302
I2
sS'lot'
p1303
I1
sS'stepspress'
p1304
I1
sS'zee5'
p1305
I1
sS'ehi'
p1306
I1
sS'gbnighttime'
p1307
I1
sS'complete'
p1308
I4
sS'bawin'
p1309
I1
sS'exsisting'
p1310
I1
sS'regard'
p1311
I11
sS'israth'
p1312
I1
sS'promote'
p1313
I1
sS'with'
p1314
I321
sS'tenaga'
p1315
I3
sS'siduwee'
p1316
I1
sS'october'
p1317
I1
sS'buddhika'
p1318
I6
sS'default'
p1319
I1
sS'tones'
p1320
I2
sS'prbath'
p1321
I1
sS'detailed'
p1322
I3
sS'gone'
p1323
I1
sS'ohh'
p1324
I1
sS'videos'
p1325
I3
sS'cinema'
p1326
I1
sS'certain'
p1327
I8
sS'describe'
p1328
I1
sS'am'
p1329
I4
sS'ekada'
p1330
I2
sS'watches'
p1331
I1
sS'an'
p1332
I79
sS'pahadili'
p1333
I2
sS'as'
p1334
I207
sS'at'
p1335
I55
sS'thaalmayudan'
p1336
I1
sS'again'
p1337
I12
sS'receive'
p1338
I17
sS'athnam'
p1339
I1
sS'details3'
p1340
I1
sS'dinuka'
p1341
I2
sS'valid'
p1342
I12
sS'yoy'
p1343
I1
sS'you'
p1344
I1627
sS'poor'
p1345
I1
sS'requested'
p1346
I20
sS'championship'
p1347
I1
sS'separate'
p1348
I1
sS'refunded'
p1349
I1
sS'nazer'
p1350
I1
sS'rukshana'
p1351
I1
sS'gifts'
p1352
I4
sS'shaakunthala'
p1353
I1
sS'coverage'
p1354
I39
sS'sadun'
p1355
I1
sS'selfcare'
p1356
I1
sS'azeem'
p1357
I2
sS'connecion'
p1358
I1
sS'remote'
p1359
I5
sS'calls'
p1360
I13
sS'mafaz'
p1361
I1
sS'wifi'
p1362
I3
sS'fraudulent'
p1363
I2
sS'procedure'
p1364
I1
sS'resolution'
p1365
I6
sS'original'
p1366
I4
sS'jayakody'
p1367
I1
sS'needful'
p1368
I6
sS'amjath'
p1369
I1
sS'consider'
p1370
I5
sS'prioritized'
p1371
I1
sS'irosha'
p1372
I2
sS'caused'
p1373
I278
sS'assistamve'
p1374
I1
sS'month'
p1375
I9
sS'dish'
p1376
I1
sS'managed'
p1377
I1
sS'kuband'
p1378
I5
sS'gb4g'
p1379
I1
sS'number'
p1380
I792
sS'referring'
p1381
I113
sS'tv'
p1382
I48
sS'tamil'
p1383
I2
sS'paribokiyanwa'
p1384
I1
sS'to'
p1385
I1337
sS'program'
p1386
I2
sS'dhaneshka'
p1387
I1
sS'wellawaya'
p1388
I1
sS'enjoying'
p1389
I1
sS'dilanka'
p1390
I3
sS'jeshreen'
p1391
I2
sS'appointment'
p1392
I2
sS'jala'
p1393
I1
sS'song'
p1394
I3
sS'very'
p1395
I19
sS'alternatives'
p1396
I1
sS'debit'
p1397
I3
sS'yazeer'
p1398
I1
sS'days.activate'
p1399
I1
sS'fan'
p1400
I1
sS'decide'
p1401
I1
sS'sony'
p1402
I19
sS'condition'
p1403
I1
sS'rushda'
p1404
I1
sS'cable'
p1405
I1
sS'ekak'
p1406
I9
sS'poya'
p1407
I1
sS'list'
p1408
I2
sS'applicable'
p1409
I4
sS'koorungal'
p1410
I1
sS'small'
p1411
I3
sS'referred'
p1412
I1
sS'zumri'
p1413
I1
sS'programme'
p1414
I3
sS'escalation'
p1415
I1
sS'ten'
p1416
I14
sS'randika'
p1417
I1
sS'past'
p1418
I1
sS'battle'
p1419
I1
sS'zero'
p1420
I1
sS'design'
p1421
I1
sS'displays'
p1422
I1
sS'pass'
p1423
I13
sS'further'
p1424
I39
sS'functioning'
p1425
I1
sS'dial'
p1426
I8
sS'availibility'
p1427
I1
sS'shyamika'
p1428
I1
sS'jananthan'
p1429
I1
sS'anniversary'
p1430
I1
sS'full.however'
p1431
I1
sS'version'
p1432
I10
sS'kirimata'
p1433
I1
sS'abu'
p1434
I1
sS'activations'
p1435
I2
sS'method'
p1436
I16
sS'full'
p1437
I3
sS'hours'
p1438
I3
sS'rs.99.81'
p1439
I1
sS'seni'
p1440
I6
sS'investigating'
p1441
I3
sS'ignore'
p1442
I3
sS'november'
p1443
I5
sS'commercially'
p1444
I1
sS'adrress'
p1445
I1
sS'saman'
p1446
I1
sS'kotteperehara'
p1447
I1
sS'standar'
p1448
I1
sS'ahead'
p1449
I5
sS'allows'
p1450
I1
sS'telecast'
p1451
I5
sS'experience'
p1452
I19
sS'heshman'
p1453
I1
sS'prior'
p1454
I2
sS'airport'
p1455
I1
sS'advertising'
p1456
I1
sS'published'
p1457
I1
sS'action'
p1458
I7
sS'options'
p1459
I2
sS'nailbiting'
p1460
I1
sS'via'
p1461
I188
sS'marginal'
p1462
I5
sS'put'
p1463
I3
sS'viv'
p1464
I1
sS'smae'
p1465
I1
sS'viu'
p1466
I14
sS'select'
p1467
I7
sS'readily'
p1468
I1
sS'dificulties'
p1469
I1
sS'khan'
p1470
I1
sS'fowzan'
p1471
I1
sS'charge'
p1472
I14
sS'vote'
p1473
I1
sS'wisin'
p1474
I1
sS'unpleasant'
p1475
I1
sS'taken'
p1476
I2
sS'markets'
p1477
I1
sS'sincere'
p1478
I8
sS'more'
p1479
I86
sS'turbo'
p1480
I2
sS'mydialog'
p1481
I32
sS'relevant'
p1482
I292
sS'company'
p1483
I1
sS'accrodingly'
p1484
I1
sS'tested'
p1485
I1
sS'particular'
p1486
I2
sS'known'
p1487
I4
sS'kasun'
p1488
I8
sS'finalization'
p1489
I1
sS'glad'
p1490
I10
sS'town'
p1491
I1
sS'hildon'
p1492
I1
sS'nona'
p1493
I1
sS'science'
p1494
I1
sS'amra'
p1495
I2
sS'dev'
p1496
I1
sS'trcsl'
p1497
I2
sS'indicating'
p1498
I3
sS'learn'
p1499
I1
sS'dec'
p1500
I2
sS'history'
p1501
I2
sS'susbcribers'
p1502
I1
sS'prompt'
p1503
I1
sS'stated'
p1504
I2
sS'prabuddha'
p1505
I3
sS'share'
p1506
I226
sS'accept'
p1507
I37
sS'states'
p1508
I1
sS'pushed'
p1509
I1
sS'minimum'
p1510
I2
sS'numbers'
p1511
I24
sS'purchased'
p1512
I3
sS'rasika'
p1513
I3
sS'airplane'
p1514
I1
sS'deshan'
p1515
I1
sS'bhathiya'
p1516
I1
sS'information'
p1517
I23
sS'respective'
p1518
I18
sS'thawa'
p1519
I2
sS'praveen'
p1520
I3
sS'utilize'
p1521
I2
sS'apaya'
p1522
I1
sS'aravinda'
p1523
I1
sS'smss'
p1524
I1
sS'conecern'
p1525
I1
sS'tried'
p1526
I2
sS'you.hence'
p1527
I1
sS'shanmugan'
p1528
I2
sS'different'
p1529
I4
sS'connectivity'
p1530
I2
sS'fb'
p1531
I4
sS'number2'
p1532
I2
sS'coming'
p1533
I5
sS'iwath'
p1534
I1
sS'response'
p1535
I1
sS'killermoiz'
p1536
I1
sS'a'
p1537
I402
sS'short'
p1538
I3
sS'vijay'
p1539
I7
sS'register'
p1540
I2
sS'anytime'
p1541
I18
sS'egt'
p1542
I1
sS'broadcasting'
p1543
I3
sS'media'
p1544
I5
sS'banks'
p1545
I1
sS'facebook'
p1546
I3
sS'rentals'
p1547
I1
sS'aqeel'
p1548
I3
sS'mahirumaaru'
p1549
I1
sS'replied'
p1550
I45
sS'slvnz'
p1551
I1
sS'kushan'
p1552
I3
sS'help'
p1553
I11
sS'september'
p1554
I2
sS'soon'
p1555
I26
sS'installed'
p1556
I3
sS'held'
p1557
I2
sS'umesh'
p1558
I1
sS'through'
p1559
I19
sS'same'
p1560
I458
sS'reconnect'
p1561
I1
sS'replies'
p1562
I1
sS'its'
p1563
I14
sS'inquiries'
p1564
I1
sS'randula'
p1565
I1
sS'athara'
p1566
I2
sS'billers'
p1567
I2
sS'reluctance'
p1568
I1
sS'conenction'
p1569
I3
sS'saajidh'
p1570
I1
sS'systems'
p1571
I1
sS'nimesh'
p1572
I4
sS'might'
p1573
I4
sS'abdul'
p1574
I2
sS'evening'
p1575
I1
sS'anticipated'
p1576
I3
sS'amalsha'
p1577
I7
sS'buffering'
p1578
I1
sS'complain'
p1579
I27
sS'instructions'
p1580
I2
sS'easily'
p1581
I2
sS'gets'
p1582
I1
sS'janaki'
p1583
I2
sS'occasions'
p1584
I1
sS'founded.happy'
p1585
I1
sS'janaka'
p1586
I1
sS'token'
p1587
I4
sS'soya'
p1588
I3
sS'denna'
p1589
I1
sS'ports'
p1590
I1
sS'shageevan'
p1591
I1
sS'heavy'
p1592
I1
sS'week'
p1593
I2
sS'anka'
p1594
I1
sS'iffath'
p1595
I1
sS'idea'
p1596
I2
sS'investigated'
p1597
I1
sS'connect'
p1598
I5
sS'blasterunlimited'
p1599
I1
sS'event'
p1600
I3
sS'really'
p1601
I38
sS'try'
p1602
I10
sS'missed'
p1603
I2
sS'p'
p1604
I2
sS'sambandawa'
p1605
I1
sS'kanagatuyi'
p1606
I1
sS'nadeera'
p1607
I1
sS'ramishka'
p1608
I2
sS'issue'
p1609
I126
sS'kapune'
p1610
I1
sS'laba'
p1611
I3
sS'labe'
p1612
I1
sS'timeline'
p1613
I1
sS'pub'
p1614
I1
sS'difficulty'
p1615
I7
sS'reason'
p1616
I5
sS'base'
p1617
I8
sS'included'
p1618
I1
sS'unbderstand'
p1619
I1
sS'members'
p1620
I5
sS'ask'
p1621
I1
sS'earliest'
p1622
I3
sS'generate'
p1623
I1
sS'definition'
p1624
I4
sS'elsirlanky'
p1625
I1
sS'benefits'
p1626
I3
sS'thread'
p1627
I1
sS'launch'
p1628
I6
sS'persists'
p1629
I2
sS'w'
p1630
I1
sS'cdma'
p1631
I1
sS'mobex'
p1632
I1
sS'oppo'
p1633
I1
sS'informations'
p1634
I1
sS'sathish'
p1635
I1
sS'dont'
p1636
I2
sS'loction'
p1637
I1
sS'mistakenly'
p1638
I1
sS'reflected'
p1639
I1
sS'broadcasted'
p1640
I2
sS'utilized'
p1641
I12
sS'done'
p1642
I7
sS'notify'
p1643
I2
sS'sumudu'
p1644
I2
sS'inshaf'
p1645
I4
sS'miss'
p1646
I1
sS'differ'
p1647
I1
sS'leading'
p1648
I3
sS'rwc19'
p1649
I2
sS'damidu'
p1650
I1
sS'station'
p1651
I2
sS'nasheeth'
p1652
I2
sS'passed'
p1653
I9
sS'master'
p1654
I1
sS'chamila'
p1655
I1
sS'chalana'
p1656
I1
sS'beileve'
p1657
I1
sS'listed'
p1658
I2
sS'option'
p1659
I10
sS'lanka'
p1660
I22
sS'part'
p1661
I3
sS'favorable'
p1662
I14
sS'off'
p1663
I6
sS'believe'
p1664
I4
sS'inboxed'
p1665
I1
sS'center'
p1666
I4
sS'kind'
p1667
I10
sS'throttle'
p1668
I1
sS'kindly'
p1669
I681
sS'kindlu'
p1670
I1
sS'danu'
p1671
I1
sS'kisho'
p1672
I1
sS'rs.5'
p1673
I1
sS'rs.2'
p1674
I1
sS'dtv'
p1675
I15
sS'interactive'
p1676
I1
sS'uncomfortable'
p1677
I1
sS'outstanding'
p1678
I9
sS'caused.please'
p1679
I1
sS'sewawa'
p1680
I2
sS'needs'
p1681
I2
sS'us.please'
p1682
I1
sS'kara'
p1683
I8
sS'gala'
p1684
I1
sS'categorized'
p1685
I1
sS'orders'
p1686
I1
sS'vindhika'
p1687
I1
sS'pasan'
p1688
I3
sS'arshad'
p1689
I2
sS'self'
p1690
I3
sS's20'
p1691
I5
sS'also'
p1692
I17
sS'pelase'
p1693
I1
sS'internal'
p1694
I2
sS'afras'
p1695
I1
sS'dmd'
p1696
I1
sS'aired'
p1697
I1
sS'towards'
p1698
I3
sS'amal'
p1699
I2
sS'inconvenience'
p1700
I296
sS'reach'
p1701
I21
sS'quota'
p1702
I11
sS'incovenience'
p1703
I1
sS'dulakshan'
p1704
I1
sS'most'
p1705
I89
sS'plan'
p1706
I6
sS'gopi'
p1707
I1
sS'services'
p1708
I24
sS'mohemed'
p1709
I1
sS'extremely'
p1710
I28
sS'zaeem'
p1711
I1
sS'value'
p1712
I22
sS'dealers'
p1713
I1
sS'mobile'
p1714
I150
sS'clear'
p1715
I11
sS'sometimes'
p1716
I1
sS'cover'
p1717
I3
sS'karanne'
p1718
I1
sS'ku'
p1719
I1
sS'gold'
p1720
I1
sS'msmendiz'
p1721
I1
sS'persecond'
p1722
I1
sS'dilshan'
p1723
I1
sS'session'
p1724
I1
sS'modelin'
p1725
I1
sS'aplogies'
p1726
I1
sS'hakida'
p1727
I1
sS'inconveniences'
p1728
I15
sS'screenshots'
p1729
I4
sS'find'
p1730
I4
sS'access'
p1731
I8
sS'chanuka'
p1732
I2
sS'music'
p1733
I11
sS'machines.kindly'
p1734
I1
sS'less'
p1735
I4
sS'sentoran'
p1736
I1
sS'zaman'
p1737
I7
sS'udana'
p1738
I1
sS'weve'
p1739
I16
sS'hit'
p1740
I1
sS'relactance'
p1741
I1
sS'banking'
p1742
I4
sS'banned'
p1743
I1
sS'valuable'
p1744
I1
sS'reply'
p1745
I4
sS'during'
p1746
I16
sS'restart'
p1747
I1
sS'kumakda'
p1748
I1
sS'resolve'
p1749
I1
sS'rebranded'
p1750
I1
sS'teams'
p1751
I4
sS'remove'
p1752
I2
sS'vithushaan'
p1753
I3
sS'investigate'
p1754
I4
sS'common'
p1755
I1
sS'noadditional'
p1756
I2
sS'double'
p1757
I1
sS'aqilah'
p1758
I1
sS'chaminda'
p1759
I2
sS'ekata'
p1760
I1
sS'bars'
p1761
I9
sS'set'
p1762
I3
sS'haraha'
p1763
I2
sS'tree'
p1764
I1
sS'deactivation'
p1765
I1
sS'see'
p1766
I1
sS'realavant'
p1767
I1
sS'close'
p1768
I2
sS'aneeq'
p1769
I1
sS'dumi'
p1770
I3
sS'visiting'
p1771
I1
sS'deactivate'
p1772
I6
sS'movie'
p1773
I3
sS'user'
p1774
I7
sS'currently'
p1775
I23
sS'please'
p1776
I645
sS'won'
p1777
I3
sS'conveyed'
p1778
I1
sS'malintha'
p1779
I1
sS'donate'
p1780
I3
sS'nope'
p1781
I1
sS'nalinda'
p1782
I1
sS'wide'
p1783
I1
sS'available'
p1784
I44
sS'premises'
p1785
I1
sS'attention'
p1786
I2
sS'pathak'
p1787
I1
sS'incident'
p1788
I1
sS'bronze'
p1789
I1
sS'both'
p1790
I10
sS'c'
p1791
I1
sS'last'
p1792
I5
sS'mega'
p1793
I1
sS'azaff'
p1794
I3
sS'tweetupsl2'
p1795
I1
sS'sensitive'
p1796
I1
sS'connection'
p1797
I787
sS'salinda'
p1798
I2
sS'mean'
p1799
I1
sS'whole'
p1800
I1
sS'upgraded'
p1801
I2
sS'iphone11'
p1802
I2
sS'elaborating'
p1803
I1
sS'point'
p1804
I1
sS'reasons'
p1805
I2
sS'loan'
p1806
I2
sS'iphones'
p1807
I2
sS'agents'
p1808
I7
sS'samawanna'
p1809
I3
sS'experiencing'
p1810
I34
sS'gavin'
p1811
I1
sS'devin'
p1812
I2
sS'belwo'
p1813
I1
sS'described'
p1814
I1
sS'raise'
p1815
I2
sS'app.appreciate'
p1816
I1
sS'monthly'
p1817
I5
sS'reasons.non'
p1818
I1
sS'due'
p1819
I34
sS'nabris'
p1820
I1
sS'strengthen'
p1821
I1
sS'inoka'
p1822
I1
sS'maintenance'
p1823
I2
sS'dama'
p1824
I1
sS'pm'
p1825
I3
sS'sending'
p1826
I6
sS'great'
p1827
I6
sS'understand'
p1828
I28
sS'shehan'
p1829
I6
sS'prices'
p1830
I4
sS'dialing'
p1831
I7
sS'highyl'
p1832
I1
sS'udara'
p1833
I3
sS'handling'
p1834
I1
sS'look'
p1835
I4
sS'coyld'
p1836
I1
sS'bill'
p1837
I21
sS'budget'
p1838
I1
sS'technical'
p1839
I8
sS'while'
p1840
I6
sS'replaced'
p1841
I3
sS'behavior'
p1842
I3
sS'error'
p1843
I26
sS'dms'
p1844
I7
sS'im_muba'
p1845
I4
sS'resolved'
p1846
I7
sS'dialog.available'
p1847
I1
sS'encountered'
p1848
I2
sS'afkar'
p1849
I2
sS'rohan'
p1850
I2
sS'lodged'
p1851
I33
sS'seen'
p1852
I2
sS'ready'
p1853
I1
sS'lada'
p1854
I2
sS'rasiika'
p1855
I1
sS'sangakkara'
p1856
I1
sS'since'
p1857
I13
sS'meineke'
p1858
I1
sS'rugbyworldcup19'
p1859
I2
sS'checking'
p1860
I5
sS'reachable'
p1861
I20
sS'advise'
p1862
I5
sS'shan'
p1863
I1
sS'rifak'
p1864
I5
sS'higher'
p1865
I3
sS'saiyaff'
p1866
I3
sS'obage'
p1867
I24
sS'used'
p1868
I3
sS'temporary'
p1869
I2
sS'bonus'
p1870
I31
sS'alert'
p1871
I2
sS'moment'
p1872
I12
sS'purpose'
p1873
I1
sS'deepak'
p1874
I3
sS'lower'
p1875
I1
sS'channelpartner'
p1876
I1
sS'dialog.skypeline'
p1877
I1
sS'ypu'
p1878
I1
sS'gajaman'
p1879
I1
sS'person'
p1880
I1
sS'zimbabwe'
p1881
I3
sS'engalukku'
p1882
I1
sS'thoroughly'
p1883
I2
sS'entry'
p1884
I1
sS'stating'
p1885
I1
sS'ambassador'
p1886
I3
sS'rs.100'
p1887
I3
sS'reviewed'
p1888
I1
sS'cricketwithdialog'
p1889
I3
sS'mytv'
p1890
I8
sS'shape'
p1891
I1
sS'intervals'
p1892
I2
sS'siduvu'
p1893
I1
sS'world'
p1894
I10
sS'alternative'
p1895
I7
sS'hatem'
p1896
I1
sS'srimal'
p1897
I2
sS'cut'
p1898
I1
sS'insuarance'
p1899
I1
sS'informal'
p1900
I1
sS'alternate'
p1901
I3
sS'advertisements'
p1902
I2
sS'akhila'
p1903
I6
sS'exclusively'
p1904
I1
sS'signals'
p1905
I13
sS'narambiya'
p1906
I1
sS'location'
p1907
I158
sS'excited'
p1908
I2
sS'thilanka'
p1909
I2
sS'australia'
p1910
I4
sS'covearage'
p1911
I1
sS'finalize'
p1912
I1
sS'big'
p1913
I2
sS'mugunthan'
p1914
I1
sS'matters'
p1915
I1
sS'redeem'
p1916
I3
sS'biz'
p1917
I2
sS'ranul'
p1918
I1
sS'lanil'
p1919
I1
sS'bit'
p1920
I1
sS'myuse'
p1921
I1
sS'imposed'
p1922
I4
sS'follows'
p1923
I1
sS'signal'
p1924
I63
sS'separately'
p1925
I1
sS'collect'
p1926
I1
sS'continue'
p1927
I2
sS'caused.kindly'
p1928
I2
sS'appreciaate'
p1929
I1
sS'requestto'
p1930
I1
sS'rs.1500'
p1931
I1
sS'essential'
p1932
I1
sS'google'
p1933
I2
sS'methods'
p1934
I12
sS'absolutely'
p1935
I1
sS'some'
p1936
I15
sS'back'
p1937
I24
sS'streaming'
p1938
I2
sS'prioritization'
p1939
I2
sS'pricing'
p1940
I2
sS'kasib'
p1941
I2
sS'sheen'
p1942
I2
sS'gataluwa'
p1943
I6
sS'broadband'
p1944
I190
sS'irfan'
p1945
I3
sS'exceeding'
p1946
I3
sS'per'
p1947
I29
sS'seller'
p1948
I1
sS'pradheep'
p1949
I1
sS'oshila'
p1950
I9
sS'innovation'
p1951
I2
sS'be'
p1952
I223
sS'processing'
p1953
I1
sS'agreement'
p1954
I13
sS'shareable'
p1955
I2
sS'fee'
p1956
I6
sS'below.1'
p1957
I1
sS'by'
p1958
I47
sS'primrose'
p1959
I1
sS'menda'
p1960
I2
sS'anything'
p1961
I1
sS'netflix'
p1962
I10
sS'completing'
p1963
I1
sS'shuja'
p1964
I2
sS'drama'
p1965
I7
sS'range'
p1966
I2
sS'dialog'
p1967
I169
sS'suhail'
p1968
I1
sS'messaging'
p1969
I2
sS'idd'
p1970
I2
sS'womens'
p1971
I1
sS'consequently'
p1972
I1
sS'block'
p1973
I32
sS'into'
p1974
I8
sS'within'
p1975
I7
sS'retailer'
p1976
I1
sS'vaas'
p1977
I1
sS'appropriate'
p1978
I1
sS'sitimu'
p1979
I6
sS'france'
p1980
I1
sS'bangladesh'
p1981
I2
sS'kanjitha'
p1982
I3
sS'spam'
p1983
I5
sS'necessasry'
p1984
I1
sS'question'
p1985
I1
sS'meetup'
p1986
I1
sS'vendors'
p1987
I1
sS'size.the'
p1988
I2
sS'forward'
p1989
I20
sS'glow'
p1990
I1
sS'shazly'
p1991
I1
sS'duly'
p1992
I2
sS'registered'
p1993
I4
sS'sujeewa'
p1994
I1
sS'deductions'
p1995
I1
sS'link'
p1996
I49
sS'line'
p1997
I10
sS'posted'
p1998
I1
sS'info'
p1999
I1
sS'pradeep'
p2000
I2
sS'thivaharan'
p2001
I1
sS'consist'
p2002
I1
sS'redeemed'
p2003
I1
sS'up'
p2004
I23
sS'us'
p2005
I829
sS'benefical'
p2006
I1
sS'malin'
p2007
I1
sS'customers'
p2008
I28
sS'imran'
p2009
I2
sS'sanjeewa'
p2010
I4
sS'calculated'
p2011
I1
sS'karanna'
p2012
I3
sS'supervisor'
p2013
I1
sS'assisgned'
p2014
I1
sS'derana'
p2015
I1
sS'm'
p2016
I1
sS'thishantha'
p2017
I1
sS'globally'
p2018
I1
sS'engineering'
p2019
I1
sS'rally'
p2020
I1
sS'irrespective'
p2021
I1
sS'codes'
p2022
I1
sS'amounts'
p2023
I1
sS'ranjith'
p2024
I3
sS'nam'
p2025
I1
sS'club'
p2026
I7
sS'raini'
p2027
I1
sS'statement'
p2028
I1
sS'nat'
p2029
I10
sS'inconvenince'
p2030
I12
sS'department'
p2031
I2
sS'amalan'
p2032
I3
sS'dialognetflix'
p2033
I1
sS'revision'
p2034
I2
sS'chathumi'
p2035
I1
sS'gogear'
p2036
I1
sS'saajid'
p2037
I1
sS'natgeo'
p2038
I1
sS'regulations'
p2039
I1
sS'generated'
p2040
I3
sS'refrain'
p2041
I2
sS'reservation'
p2042
I1
sS'sudaraka'
p2043
I2
sS'ago'
p2044
I2
sS'favourble'
p2045
I1
sS'e'
p2046
I5
sS'age'
p2047
I2
sS'required'
p2048
I6
sS'wards'
p2049
I2
sS'yomu'
p2050
I5
sS'manusha'
p2051
I1
sS'circuit'
p2052
I1
sS'utilized.hence'
p2053
I1
sS'came'
p2054
I2
sS'saminda'
p2055
I2
sS'far'
p2056
I4
sS'international'
p2057
I3
sS'having'
p2058
I9
sS'once'
p2059
I11
sS'code'
p2060
I5
sS'keyphone'
p2061
I1
sS'issued'
p2062
I1
sS'existing'
p2063
I6
sS'classic'
p2064
I1
sS'gb'
p2065
I9
sS'go'
p2066
I2
sS'query'
p2067
I6
sS'tweeted'
p2068
I1
sS'issues'
p2069
I20
sS'naleem'
p2070
I2
sS'shiraz'
p2071
I1
sS'reinsert'
p2072
I3
sS'navida'
p2073
I1
sS'roshan'
p2074
I2
sS'send'
p2075
I37
sS'shiraj'
p2076
I1
sS'blaze'
p2077
I1
sS'meya'
p2078
I9
sS'lilly'
p2079
I1
sS'asistance'
p2080
I1
sS'resources'
p2081
I1
sS'rs.776.22'
p2082
I1
sS'confirmation'
p2083
I3
sS'vihan'
p2084
I1
sS'continues'
p2085
I1
sS'dulith'
p2086
I1
sS'wave'
p2087
I1
sS'wishes'
p2088
I3
sS'putting'
p2089
I1
sS'kapilan'
p2090
I1
sS'dinith'
p2091
I1
sS'arrange'
p2092
I1
sS'entire'
p2093
I2
sS'transmission'
p2094
I1
sS'magin'
p2095
I2
sS'joel'
p2096
I4
sS'michael'
p2097
I2
sS'waruna'
p2098
I1
sS'deals'
p2099
I2
sS'reshzan'
p2100
I2
sS'packageany'
p2101
I1
sS'havent'
p2102
I3
sS'noted'
p2103
I7
sS'concluded'
p2104
I1
sS'senorita'
p2105
I1
sS'anekuth'
p2106
I1
sS'bonus35'
p2107
I1
sS'odi'
p2108
I1
sS'video'
p2109
I13
sS'troubleshooting'
p2110
I1
sS'licenses'
p2111
I1
sS'click'
p2112
I2
sS'rs.200'
p2113
I1
sS'rs.25'
p2114
I1
sS'business'
p2115
I1
sS'assisted'
p2116
I19
sS'networks'
p2117
I1
sS'chamara'
p2118
I1
sS'huawei'
p2119
I1
sS'lakshan'
p2120
I5
sS'itll'
p2121
I1
sS'relocate'
p2122
I3
sS'tournaments'
p2123
I2
sS'lee'
p2124
I1
sS'exchange'
p2125
I1
sS'regrading'
p2126
I1
sS'punch'
p2127
I1
sS'depositno'
p2128
I1
sS'incoviences'
p2129
I1
sS'let'
p2130
I184
sS'badha'
p2131
I1
sS'others'
p2132
I1
sS'consideration'
p2133
I1
sS'yomukara'
p2134
I1
sS'extreme'
p2135
I6
sS'settling'
p2136
I2
sS'convert'
p2137
I2
sS'engage'
p2138
I1
sS'chanu'
p2139
I2
sS'alage'
p2140
I1
sS'awanthi'
p2141
I1
sS'dilan'
p2142
I2
sS'products'
p2143
I3
sS'situations'
p2144
I3
sS'implement'
p2145
I1
sS'sanga'
p2146
I1
sS'guidance'
p2147
I1
sS'lasantha'
p2148
I2
sS'sat'
p2149
I1
sS'apple'
p2150
I6
sS'lords'
p2151
I1
sS'win'
p2152
I14
sS'app'
p2153
I69
sS'manage'
p2154
I2
sS'increased'
p2155
I1
sS'frame'
p2156
I3
sS'apply'
p2157
I1
sS'apa'
p2158
I19
sS'moufaz'
p2159
I1
sS'bradman'
p2160
I1
sS'rs.6449'
p2161
I1
sS'use'
p2162
I29
sS'usd'
p2163
I1
sS'from'
p2164
I71
sS'consumption'
p2165
I1
sS'paste'
p2166
I1
sS'clarifications'
p2167
I1
sS'next'
p2168
I9
sS'thimira'
p2169
I11
sS'few'
p2170
I25
sS'uss'
p2171
I1
sS'prabath'
p2172
I1
sS'zim'
p2173
I1
sS'sort'
p2174
I2
sS'tharaka'
p2175
I1
sS'started'
p2176
I2
sS'calling'
p2177
I3
sS'biller'
p2178
I1
sS'occurred'
p2179
I2
sS'reloads'
p2180
I2
sS'aleady'
p2181
I1
sS'relvant'
p2182
I1
sS'prizes'
p2183
I1
sS'homebroadband'
p2184
I1
sS'amathiya'
p2185
I1
sS'customer'
p2186
I19
sS'account'
p2187
I16
sS'this'
p2188
I261
sS'ride'
p2189
I1
sS'package'
p2190
I56
sS'anywhere'
p2191
I2
sS'of'
p2192
I223
sS'control'
p2193
I4
sS'streamed'
p2194
I1
sS'lasitha'
p2195
I2
sS'links'
p2196
I2
sS'invoices'
p2197
I1
sS'discussed'
p2198
I4
sS'tax'
p2199
I10
sS'promotional'
p2200
I6
sS'high'
p2201
I11
sS'his'
p2202
I2
sS'tab'
p2203
I2
sS'appvalue'
p2204
I1
sS'sir'
p2205
I1
sS'haappy'
p2206
I1
sS'six'
p2207
I9
sS'rumman'
p2208
I3
sS'delay'
p2209
I37
sS'occuring'
p2210
I1
sS'gateway'
p2211
I1
sS'instead'
p2212
I1
sS'sim'
p2213
I17
sS'stock'
p2214
I1
sS'highy'
p2215
I1
sS'blocks'
p2216
I3
sS'attend'
p2217
I2
sS'specifications'
p2218
I1
sS'stop'
p2219
I2
sS'youve'
p2220
I6
sS'back.guess'
p2221
I1
sS'tier'
p2222
I5
sS'no.200335045'
p2223
I1
sS'counter'
p2224
I1
sS'dsport'
p2225
I1
sS'bloack'
p2226
I1
sS'allow'
p2227
I19
sS'favourites'
p2228
I1
sS'note10withdialog'
p2229
I1
sS'kirima'
p2230
I1
sS'haka'
p2231
I1
sS'relevat'
p2232
I1
sS'areas'
p2233
I1
sS'mticketing'
p2234
I1
sS'ecperience'
p2235
I1
sS'meter'
p2236
I1
sS'murtaza'
p2237
I1
sS'inconveience'
p2238
I1
sS'including'
p2239
I1
sS'mentioned'
p2240
I44
sS'mitered'
p2241
I1
sS'galaxy'
p2242
I1
sS'volte'
p2243
I3
sS'located'
p2244
I6
sS'rectify'
p2245
I3
sS'winning'
p2246
I1
sS'permanent'
p2247
I1
sS'button'
p2248
I1
sS'attention.we'
p2249
I1
sS'oporto'
p2250
I1
sS'practice'
p2251
I1
sS'kisi'
p2252
I1
sS'mention'
p2253
I6
sS'prabhath'
p2254
I1
sS'day'
p2255
I30
sS'refering'
p2256
I5
sS'february'
p2257
I1
sS'nimsidk'
p2258
I1
sS'installment'
p2259
I3
sS'billa'
p2260
I1
sS'identified'
p2261
I1
sS'siyalama'
p2262
I1
sS'crescat'
p2263
I1
sS'mode'
p2264
I1
sS'viewing'
p2265
I3
sS'disregard'
p2266
I2
sS'hotline'
p2267
I4
sS'bills'
p2268
I2
sS'experienced'
p2269
I3
sS'prevailing'
p2270
I2
sS'profile'
p2271
I1
sS'activate'
p2272
I29
sS'cup'
p2273
I8
sS'doing'
p2274
I1
sS'apologize'
p2275
I35
sS'unbelievable'
p2276
I1
sS'related'
p2277
I21
sS'frequency'
p2278
I5
sS'changed'
p2279
I1
sS'our'
p2280
I211
sS'programmes'
p2281
I1
sS'special'
p2282
I1
sS'out'
p2283
I11
sS'category'
p2284
I5
sS'license'
p2285
I5
sS'apolohgies'
p2286
I1
sS'announces'
p2287
I1
sS'yupptv'
p2288
I1
sS'nifaadh'
p2289
I1
sS'escalate'
p2290
I39
sS'defualt'
p2291
I1
sS'azraa'
p2292
I1
sS'wisinma'
p2293
I1
sS'supports'
p2294
I1
sS'red'
p2295
I5
sS'disclose'
p2296
I4
sS'await'
p2297
I1
sS'shots'
p2298
I1
sS'danwaa'
p2299
I1
sS'gunfuls'
p2300
I1
sS'witcher'
p2301
I1
sS'offers.no'
p2302
I1
sS'completely'
p2303
I2
sS'ect'
p2304
I1
sS'surely'
p2305
I4
sS'balimata'
p2306
I2
sS'regulatory'
p2307
I3
sS'philip'
p2308
I2
sS'archana'
p2309
I1
sS'afdhal'
p2310
I2
sS'g'
p2311
I1
sS'applications'
p2312
I2
sS'could'
p2313
I315
sS'keells'
p2314
I1
sS'david'
p2315
I3
sS'conversation'
p2316
I1
sS'seemawa'
p2317
I1
sS'lte'
p2318
I3
sS'ltd'
p2319
I1
sS'farzan'
p2320
I2
sS'retail'
p2321
I1
sS'south'
p2322
I1
sS'third'
p2323
I6
sS'powerful'
p2324
I1
sS'improving'
p2325
I1
sS'muhammad'
p2326
I4
sS'mah'
p2327
I1
sS'reached'
p2328
I2
sS'password.step'
p2329
I1
sS'pawathi'
p2330
I2
sS'endemic'
p2331
I2
sS'pvt'
p2332
I1
sS'sharon'
p2333
I2
sS'management'
p2334
I2
sS'keypad'
p2335
I1
sS'jananath'
p2336
I2
sS'festival'
p2337
I1
sS'unknown'
p2338
I1
sS'assure'
p2339
I2
sS'cargills'
p2340
I1
sS'priority'
p2341
I9
sS'their'
p2342
I19
sS'assistamce'
p2343
I1
sS'huzefa'
p2344
I3
sS'perfectly'
p2345
I1
sS'final'
p2346
I1
sS'inapp'
p2347
I1
sS'stars'
p2348
I1
sS'tilak'
p2349
I2
sS'sachet'
p2350
I2
sS'wasana'
p2351
I1
sS'completed'
p2352
I3
sS'exactly'
p2353
I1
sS'apologise'
p2354
I2
sS'sabry'
p2355
I1
sS'regards'
p2356
I55
sS'unsubscribe'
p2357
I1
sS'facilitated'
p2358
I1
sS'updating'
p2359
I3
sS'ipad'
p2360
I1
sS'loved'
p2361
I3
sS'akhilasg'
p2362
I1
sS'sambandawada'
p2363
I1
sS'reerence'
p2364
I1
sS'youtube'
p2365
I15
sS'submitted'
p2366
I1
sS'ranil'
p2367
I1
sS'decided'
p2368
I1
sS'maleth'
p2369
I1
sS'visited'
p2370
I4
sS'providing'
p2371
I4
sS'are'
p2372
I508
sS'partnership'
p2373
I1
sS'yohan'
p2374
I2
sS'unavailability'
p2375
I2
sS'buy'
p2376
I1
sS'have'
p2377
I354
sS'need'
p2378
I13
sS'ypur'
p2379
I1
sS'blockbuster'
p2380
I1
sS'demonstration'
p2381
I1
sS'clearly'
p2382
I5
sS'able'
p2383
I15
sS'parks'
p2384
I1
sS'mix'
p2385
I1
sS'concerns'
p2386
I18
sS'bonanza'
p2387
I1
sS'which'
p2388
I85
sS'divert'
p2389
I1
sS'clash'
p2390
I1
sS'who'
p2391
I10
sS'salli'
p2392
I1
sS'visa'
p2393
I1
sS'connected'
p2394
I4
sS'susai'
p2395
I1
sS'buddika'
p2396
I1
sS'device'
p2397
I108
sS'vish'
p2398
I1
sS'expired'
p2399
I3
sS'payment'
p2400
I23
sS'manoj'
p2401
I1
sS'volume'
p2402
I2
sS'takes'
p2403
I1
sS'url'
p2404
I1
sS'malith'
p2405
I2
sS'antimata'
p2406
I1
sS'upset'
p2407
I1
sS'denu'
p2408
I1
sS'face'
p2409
I16
sS'docaayya'
p2410
I1
sS'thenew'
p2411
I2
sS'thilan'
p2412
I3
sS'happned'
p2413
I2
sS'chances'
p2414
I1
sS'text'
p2415
I1
sS'supported'
p2416
I2
sS'unsolicited'
p2417
I2
sS'bring'
p2418
I1
sS'planning'
p2419
I1
sS'party.however'
p2420
I1
sS'staff'
p2421
I1
sS'shaafo'
p2422
I1
sS'partners'
p2423
I1
sS'concernai'
p2424
I1
sS'based'
p2425
I11
sS'ediriyedi'
p2426
I1
sS'tire'
p2427
I1
sS'earned'
p2428
I1
sS'winner'
p2429
I1
sS'parthiban'
p2430
I1
sS'should'
p2431
I5
sS'jan'
p2432
I4
sS'mahendra'
p2433
I1
sS'bases'
p2434
I1
sS'indeed'
p2435
I1
sS'vidulaj'
p2436
I2
sS'he'
p2437
I1
sS'local'
p2438
I3
sS'hope'
p2439
I42
sS'meant'
p2440
I1
sS'count'
p2441
I2
sS'bear'
p2442
I6
sS'inakka'
p2443
I1
sS'wetha'
p2444
I16
sS'dushanthi'
p2445
I2
sS'aforementioned'
p2446
I1
sS'richards'
p2447
I1
sS'penetrate'
p2448
I1
sS'wasantha'
p2449
I1
sS'haki'
p2450
I2
sS'reqest'
p2451
I3
sS'compalin'
p2452
I1
sS'nish'
p2453
I1
sS'nisi'
p2454
I1
sS'raised.exact'
p2455
I1
sS'tikiri'
p2456
I1
sS'conditions'
p2457
I2
sS'nisa'
p2458
I1
sS'mohammed'
p2459
I2
sS'taxes'
p2460
I7
sS'tuned'
p2461
I8
sS'sha'
p2462
I1
sS'tweeps'
p2463
I1
sS'processed'
p2464
I1
sS'fixed'
p2465
I2
sS'view'
p2466
I5
sS'guessing'
p2467
I1
sS'requirement'
p2468
I2
sS'national'
p2469
I2
sS'showdown'
p2470
I1
sS'sutharman'
p2471
I1
sS'operates'
p2472
I3
sS'computer'
p2473
I2
sS'battery'
p2474
I2
sS'unlimited'
p2475
I19
sS'karanamen'
p2476
I3
sS'limit2'
p2477
I1
sS'infas'
p2478
I1
sS'state'
p2479
I1
sS'difficulties'
p2480
I2
sS'closed'
p2481
I4
sS'progress'
p2482
I12
sS'packagegovernment'
p2483
I1
sS'email'
p2484
I14
sS'shabina'
p2485
I1
sS'danuwath'
p2486
I1
sS'ability'
p2487
I4
sS'hameedia'
p2488
I1
sS'importance'
p2489
I1
sS'deliver'
p2490
I1
sS'amex'
p2491
I1
sS'afridi'
p2492
I1
sS'key'
p2493
I1
sS'police'
p2494
I1
sS'tweetup'
p2495
I1
sS'restrictions'
p2496
I4
sS'krisanth'
p2497
I3
sS'always'
p2498
I3
sS'taking'
p2499
I1
sS'invitee'
p2500
I1
sS'postpaid'
p2501
I25
sS'etc'
p2502
I9
sS'section'
p2503
I1
sS'comment'
p2504
I5
sS'aa'
p2505
I1
sS'same.further'
p2506
I1
sS'ch'
p2507
I3
sS'cm'
p2508
I1
sS'malcolm'
p2509
I4
sS'subscribe'
p2510
I2
sS'munza'
p2511
I3
sS'sajidh'
p2512
I1
sS'ziyan'
p2513
I1
sS'allocated'
p2514
I6
sS'hasthika'
p2515
I1
sS'slasscom'
p2516
I1
sS'addition'
p2517
I1
sS'sara'
p2518
I2
sS'copies'
p2519
I1
sS'yam'
p2520
I2
sS'chinthana'
p2521
I1
sS'hemantha'
p2522
I1
sS'rumesh'
p2523
I4
sS'qualify'
p2524
I1
sS'shamilka'
p2525
I1
sS'adapting'
p2526
I1
sS'controlled'
p2527
I1
sS'sufficient'
p2528
I1
sS'question.as'
p2529
I1
sS'controller'
p2530
I1
sS'mail'
p2531
I1
sS'tychy'
p2532
I1
sS'nextlevel'
p2533
I1
sS'sampath'
p2534
I2
sS'present'
p2535
I1
sS'divisions'
p2536
I1
sS'anush'
p2537
I1
sS'smartphones'
p2538
I2
sS'device4g'
p2539
I1
sS'unlike'
p2540
I1
sS'catchup'
p2541
I2
sS'chamal'
p2542
I2
sS'tshirt'
p2543
I1
sS'salman'
p2544
I1
sS'will'
p2545
I301
sS'vishiru'
p2546
I1
sS'ultra'
p2547
I3
sS'sandaha'
p2548
I7
sS'ringing'
p2549
I2
sS'almost'
p2550
I1
sS'site'
p2551
I9
sS'vs'
p2552
I6
sS'dual'
p2553
I1
sS'partner'
p2554
I10
sS'salyaf'
p2555
I1
sS'itzjambole'
p2556
I1
sS'whore'
p2557
I2
sS'weema'
p2558
I2
sS'lankan'
p2559
I3
sS'anfaaz'
p2560
I1
sS'cross'
p2561
I1
sS'member'
p2562
I3
sS'utilized.2.if'
p2563
I1
sS'ince'
p2564
I1
sS'auto'
p2565
I3
sS'party'
p2566
I11
sS'android'
p2567
I3
sS'fill'
p2568
I1
sS'privileged'
p2569
I1
sS'hasitha'
p2570
I3
sS'galaxynote10'
p2571
I2
sS'conectivity'
p2572
I1
sS'promo'
p2573
I10
sS'ourlionsourpride'
p2574
I2
sS'ios'
p2575
I3
sS'effect'
p2576
I2
sS'bala'
p2577
I1
sS'jagatha'
p2578
I1
sS'chathura'
p2579
I2
sS'sooner'
p2580
I1
sS'yoou'
p2581
I1
sS'kadhish'
p2582
I1
sS'keep'
p2583
I21
sS'transaction'
p2584
I1
sS'discounted'
p2585
I1
sS'proceed'
p2586
I7
sS'karana'
p2587
I6
sS'fully'
p2588
I2
sS'i'
p2589
I8
sS'well'
p2590
I44
sS'dinal'
p2591
I1
sS'karanu'
p2592
I1
sS'command'
p2593
I4
sS'english'
p2594
I2
sS'firstly'
p2595
I1
sS'audio'
p2596
I1
sS'yasir'
p2597
I1
sS'latest'
p2598
I14
sS'newest'
p2599
I1
sS'hemitha'
p2600
I2
sS'moments'
p2601
I1
sS'izmie'
p2602
I2
sS'accurate'
p2603
I2
sS'renconfirm'
p2604
I1
sS'not'
p2605
I99
sS'advertised'
p2606
I1
sS'years'
p2607
I4
sS'ujitha'
p2608
I2
sS'rest'
p2609
I1
sS'remote.check'
p2610
I1
sS'rs.1950'
p2611
I1
sS'activationsalah'
p2612
I1
sS'web'
p2613
I2
sS'ads'
p2614
I1
sS'wee'
p2615
I3
sS'wed'
p2616
I2
sS'praveendeshai'
p2617
I1
sS'feedback.we'
p2618
I1
sS'ravindu'
p2619
I5
sS'add'
p2620
I9
sS'other'
p2621
I12
sS'nor'
p2622
I1
sS'usage'
p2623
I33
sS'match'
p2624
I21
sS'details'
p2625
I372
sS'allblacks'
p2626
I1
sS'ahamed'
p2627
I5
sS'lakshitha'
p2628
I7
sS'unbilled'
p2629
I1
sS'government'
p2630
I3
sS'characters'
p2631
I1
sS'fyi'
p2632
I1
sS'recharging'
p2633
I4
sS'historic'
p2634
I1
sS'know'
p2635
I186
sS'desk'
p2636
I1
sS'imei'
p2637
I3
sS'ruwan'
p2638
I2
sS'password'
p2639
I1
sS'loss'
p2640
I1
sS'atha'
p2641
I3
sS'necessary'
p2642
I5
sS'like'
p2643
I12
sS'athi'
p2644
I2
sS'baleemata'
p2645
I1
sS'payments'
p2646
I7
sS'james'
p2647
I1
sS'simply'
p2648
I2
sS'works'
p2649
I2
sS'page'
p2650
I10
sS'replacement'
p2651
I8
sS'because'
p2652
I1
sS'twitter'
p2653
I3
sS'authority'
p2654
I2
sS'tempered'
p2655
I1
sS'platforms'
p2656
I2
sS'proper'
p2657
I2
sS'home'
p2658
I122
sS'reloading'
p2659
I2
sS'achini'
p2660
I1
sS'broad'
p2661
I3
sS'avoid'
p2662
I5
sS'ese'
p2663
I1
sS'does'
p2664
I6
sS'sambandayen'
p2665
I2
sS'dekak'
p2666
I1
sS'ishara'
p2667
I1
sS'reaching'
p2668
I5
sS'dcb'
p2669
I2
sS'consuming'
p2670
I1
sS'expire'
p2671
I2
sS'loans'
p2672
I1
sS'stage'
p2673
I2
sS'about'
p2674
I21
sS'lifestyle'
p2675
I6
sS'package.if'
p2676
I3
sS'getting'
p2677
I9
sS'uodate'
p2678
I1
sS'introduces'
p2679
I2
sS'suhasha'
p2680
I2
sS'daran'
p2681
I1
sS'carrier'
p2682
I1
sS'introduced'
p2683
I4
sS'software'
p2684
I1
sS'warranty'
p2685
I1
sS'own'
p2686
I2
sS'EMO_POS'
p2687
I155
sS'downgrading'
p2688
I1
sS'previously'
p2689
I1
sS'nafees'
p2690
I1
sS'hirosh'
p2691
I1
sS'tag'
p2692
I2
sS'chris'
p2693
I1
sS'weather'
p2694
I2
sS'promise'
p2695
I1
sS'fraud'
p2696
I4
sS'utility'
p2697
I2
sS'terminated'
p2698
I1
sS'additional'
p2699
I4
sS'transfer'
p2700
I3
sS'apps'
p2701
I4
sS'awarded'
p2702
I2
sS'mydialogapp'
p2703
I5
sS'ayaz'
p2704
I1
sS'incurred'
p2705
I1
sS'biggest'
p2706
I1
sS'vas'
p2707
I1
sS'jeewansupathapala'
p2708
I1
sS'function'
p2709
I1
sS'cricket'
p2710
I7
sS'receipt'
p2711
I1
sS'ireland'
p2712
I2
sS'shane'
p2713
I3
sS'bus'
p2714
I1
sS'brand'
p2715
I4
sS'nondialog'
p2716
I1
sS'but'
p2717
I27
sS'delivery'
p2718
I1
sS'hi'
p2719
I1888
sS'sadahan'
p2720
I1
sS'sadaham'
p2721
I2
sS'automated'
p2722
I1
sS'kalpa'
p2723
I3
sS'amith'
p2724
I1
sS'highest'
p2725
I1
sS'bug'
p2726
I1
sS'hd'
p2727
I18
sS'rahul'
p2728
I1
sS'apna'
p2729
I3
sS'made'
p2730
I13
sS'gopikrishna'
p2731
I2
sS'namila'
p2732
I8
sS'whether'
p2733
I44
sS'wish'
p2734
I21
sS'official'
p2735
I2
sS'roam'
p2736
I1
sS'excitement'
p2737
I1
sS'below'
p2738
I63
sS'cchamount'
p2739
I1
sS'limit'
p2740
I4
sS'tini'
p2741
I1
sS'demonstrate'
p2742
I1
sS'problem'
p2743
I6
sS'minutes'
p2744
I21
sS'display'
p2745
I2
sS'bearing'
p2746
I1
sS'ihatha'
p2747
I1
sS'play'
p2748
I2
sS'pin'
p2749
I1
sS'pilibandawa'
p2750
I3
sS'universal'
p2751
I1
sS'year'
p2752
I7
sS'myu'
p2753
I1
sS'sembapperuma1'
p2754
I1
sS'periods'
p2755
I3
sS'salmaan'
p2756
I1
sS'sinhala'
p2757
I1
sS'complaint'
p2758
I121
sS'compared'
p2759
I2
sS'variety'
p2760
I1
sS'corporation'
p2761
I1
sS'packs'
p2762
I2
sS'detail'
p2763
I1
sS'onwards'
p2764
I2
sS'illa'
p2765
I8
sS'revecove'
p2766
I1
sS'mahesh'
p2767
I2
sS'star'
p2768
I27
sS'utilized.if'
p2769
I1
sS'monday'
p2770
I1
sS'june'
p2771
I2
sS'outlets'
p2772
I1
sS'variation'
p2773
I1
sS'stay'
p2774
I8
sS'chance'
p2775
I10
sS'friends'
p2776
I4
sS'wickramarachchi'
p2777
I1
sS'bucknor'
p2778
I1
sS'simon'
p2779
I1
sS'samsung'
p2780
I6
sS'entertainment'
p2781
I6
sS'packageteachers'
p2782
I1
sS'mauzoom'
p2783
I1
sS'volumes'
p2784
I2
sS'lives'
p2785
I1
sS'airpod'
p2786
I3
sS'representative'
p2787
I1
stp2788
Rp2789
.