cnltk.probability
FreqDist
p0
((dp1
S'secondly'
p2
I1
sS'frankanderic'
p3
I1
sS'limited'
p4
I2
sS'all'
p5
I32
sS'facilities'
p6
I1
sS'saved'
p7
I2
sS'replacements'
p8
I1
sS'aug'
p9
I2
sS'eligible'
p10
I4
sS'harshana'
p11
I1
sS'udawa'
p12
I1
sS'under'
p13
I33
sS'sorry'
p14
I141
sS'pride'
p15
I1
sS'updated'
p16
I4
sS'activation'
p17
I6
sS'pramadayata'
p18
I1
sS'asanka'
p19
I3
sS'every'
p20
I2
sS'updates'
p21
I3
sS'manik'
p22
I1
sS'dulanjaya'
p23
I1
sS'bringing'
p24
I2
sS'encounter'
p25
I2
sS'ranindu'
p26
I1
sS'prize'
p27
I1
sS'anujith'
p28
I1
sS'fowarded'
p29
I1
sS'solution'
p30
I7
sS'no.1'
p31
I1
sS'rechable'
p32
I1
sS'bevan'
p33
I1
sS'enjoy'
p34
I7
sS'speck'
p35
I1
sS'sumran'
p36
I2
sS'aaseem'
p37
I1
sS'guidelines'
p38
I1
sS'direct'
p39
I3
sS'second'
p40
I3
sS'caused.we'
p41
I2
sS'chandana'
p42
I1
sS'warne'
p43
I1
sS'chek'
p44
I1
sS'topup'
p45
I1
sS'even'
p46
I4
sS'errors'
p47
I2
sS'chamikara'
p48
I1
sS'asia'
p49
I1
sS'lights'
p50
I1
sS'above'
p51
I36
sS'gbvalidity'
p52
I1
sS'new'
p53
I20
sS'ever'
p54
I1
sS'extremly'
p55
I1
sS'zack'
p56
I1
sS'nawa'
p57
I1
sS'met'
p58
I1
sS'active'
p59
I6
sS'path'
p60
I2
sS'methodvia'
p61
I1
sS'digits'
p62
I2
sS'voice'
p63
I10
sS'anjula'
p64
I3
sS'elaborate'
p65
I35
sS'omal'
p66
I1
sS'gayathri'
p67
I1
sS'hansa'
p68
I2
sS'credit'
p69
I6
sS'omar'
p70
I1
sS'indranatha'
p71
I1
sS'browsing'
p72
I1
sS'pack'
p73
I4
sS'settled'
p74
I4
sS'highly'
p75
I3
sS'patience'
p76
I5
sS'total'
p77
I6
sS'philip'
p78
I2
sS'unit'
p79
I1
sS'prashan'
p80
I2
sS'spoke'
p81
I1
sS'would'
p82
I25
sS'browse'
p83
I1
sS'chamith'
p84
I1
sS'same.also'
p85
I1
sS'negative'
p86
I1
sS'chargers'
p87
I1
sS'call'
p88
I15
sS'therefore'
p89
I1
sS'recommend'
p90
I2
sS'type'
p91
I9
sS'until'
p92
I7
sS'relay'
p93
I2
sS'clearly'
p94
I2
sS'siduwuya'
p95
I1
sS'suggesstion'
p96
I1
sS'yogendiran'
p97
I1
sS'phone'
p98
I16
sS'moin'
p99
I1
sS'hold'
p100
I4
sS'tariff'
p101
I1
sS'blocking'
p102
I1
sS'must'
p103
I3
sS'me'
p104
I5
sS'zayeem'
p105
I1
sS'rights'
p106
I1
sS'mj'
p107
I1
sS'movies'
p108
I1
sS'itself'
p109
I1
sS'transparency'
p110
I2
sS'my'
p111
I9
sS'wana'
p112
I1
sS'give'
p113
I3
sS'appologies'
p114
I1
sS'india'
p115
I1
sS'implementations'
p116
I1
sS'indicates'
p117
I1
sS'indies'
p118
I1
sS'want'
p119
I4
sS'keep'
p120
I15
sS'end'
p121
I7
sS'chanaka'
p122
I1
sS'turn'
p123
I1
sS'provide'
p124
I27
sS'verify'
p125
I5
sS'travel'
p126
I2
sS'feature'
p127
I7
sS'refrence'
p128
I1
sS'machine'
p129
I1
sS'how'
p130
I16
sS'hot'
p131
I1
sS'rewind'
p132
I1
sS'answer'
p133
I4
sS'if'
p134
I384
sS'charging'
p135
I1
sS'ourlions'
p136
I5
sS'sajith'
p137
I1
sS'shiyam'
p138
I1
sS'earlier'
p139
I13
sS'loyalty'
p140
I12
sS'sanka'
p141
I3
sS'farzan'
p142
I1
sS'sohan'
p143
I1
sS'purchase'
p144
I5
sS'effective'
p145
I2
sS'appreciate'
p146
I221
sS'think'
p147
I2
sS'maintain'
p148
I3
sS'ultimate'
p149
I1
sS'suggest'
p150
I4
sS'first'
p151
I10
sS'order'
p152
I77
sS'fifa'
p153
I1
sS'virivaagak'
p154
I1
sS'office'
p155
I1
sS'consent'
p156
I2
sS'over'
p157
I6
sS'vary'
p158
I1
sS'satisfied'
p159
I1
sS'supun'
p160
I2
sS'telecasting'
p161
I5
sS'japan'
p162
I1
sS'activating'
p163
I1
sS'before'
p164
I5
sS'ima'
p165
I3
sS'meetup'
p166
I1
sS'connec'
p167
I1
sS'tuned'
p168
I4
sS'personal'
p169
I1
sS'sahaya'
p170
I4
sS'fix'
p171
I2
sS'ikmaweema'
p172
I1
sS'better'
p173
I23
sS'tagging'
p174
I1
sS'weeks'
p175
I1
sS'anushka'
p176
I1
sS'then'
p177
I3
sS'them'
p178
I1
sS'affected'
p179
I1
sS'minuka'
p180
I1
sS'press'
p181
I1
sS'band'
p182
I1
sS'anncy'
p183
I1
sS'they'
p184
I19
sS'akila'
p185
I1
sS'rental'
p186
I4
sS'bank'
p187
I9
sS'usman'
p188
I1
sS'rajitha'
p189
I4
sS'notified'
p190
I1
sS'sidu'
p191
I1
sS'eranga'
p192
I10
sS'disconnection'
p193
I2
sS'good'
p194
I3
sS'victory'
p195
I4
sS'entitled'
p196
I1
sS'side'
p197
I1
sS'nayanathara'
p198
I1
sS'sahad'
p199
I1
sS'sahan'
p200
I2
sS'series'
p201
I2
sS'train'
p202
I1
sS'celebrating'
p203
I1
sS'milan'
p204
I2
sS'dulaj'
p205
I1
sS'hosted'
p206
I1
sS'comedies'
p207
I8
sS'network'
p208
I17
sS'thinura'
p209
I1
sS'rs'
p210
I11
sS'sms'
p211
I40
sS'monitor'
p212
I1
sS'content'
p213
I2
sS're'
p214
I2
sS'nic'
p215
I96
sS'nayaken'
p216
I1
sS'debit'
p217
I2
sS'got'
p218
I6
sS'ofcourse'
p219
I2
sS'independence'
p220
I1
sS'telecommunication'
p221
I5
sS'assured'
p222
I7
sS'resume'
p223
I1
sS'given'
p224
I14
sS'free'
p225
I18
sS'standard'
p226
I6
sS'campaigns'
p227
I1
sS'kaveen'
p228
I2
sS'thenew'
p229
I1
sS'lahiru'
p230
I3
sS'saha'
p231
I4
sS'messages'
p232
I15
sS'days'
p233
I13
sS'isuru'
p234
I4
sS'isura'
p235
I3
sS'onto'
p236
I2
sS'speeds'
p237
I2
sS'purpose'
p238
I1
sS'kaumadhi'
p239
I1
sS'already'
p240
I21
sS'features'
p241
I2
sS'reconnected'
p242
I1
sS'primary'
p243
I4
sS'restrict'
p244
I1
sS'another'
p245
I2
sS'dennemu'
p246
I3
sS'service'
p247
I40
sS'attach'
p248
I1
sS'top'
p249
I5
sS'needed'
p250
I1
sS'rates'
p251
I4
sS'too'
p252
I5
sS'nohaki'
p253
I1
sS'tool'
p254
I1
sS'villages'
p255
I1
sS'albert'
p256
I1
sS'took'
p257
I1
sS'rectified'
p258
I5
sS'fawzan'
p259
I1
sS'begins'
p260
I1
sS'masroor'
p261
I1
sS'saeed'
p262
I1
sS'enabled'
p263
I1
sS'rate'
p264
I14
sS'matter'
p265
I4
sS'obata'
p266
I6
sS'sheen'
p267
I1
sS'tion'
p268
I1
sS'welcomewe'
p269
I1
sS'mini'
p270
I1
sS'youre'
p271
I32
sS'lasanka'
p272
I3
sS'raees'
p273
I1
sS'tells'
p274
I1
sS'latency'
p275
I1
sS'strength'
p276
I2
sS'genuine'
p277
I1
sS'mostly'
p278
I2
sS'relayed'
p279
I2
sS'apahasuthawayak'
p280
I2
sS'convenient'
p281
I2
sS'axiata'
p282
I1
sS'responsible'
p283
I4
sS'unbilled'
p284
I1
sS'recommended'
p285
I1
sS'causing'
p286
I1
sS'indrajith'
p287
I1
sS'wimbledon2019'
p288
I1
sS'rs.500'
p289
I1
sS'shall'
p290
I7
sS'bruce'
p291
I1
sS'simulated'
p292
I1
sS'what'
p293
I12
sS'madusanka'
p294
I1
sS'welcome.we'
p295
I5
sS'letter'
p296
I1
sS'phase'
p297
I1
sS'the'
p298
I1669
sS'maria'
p299
I2
sS'zealand'
p300
I2
sS'singer'
p301
I2
sS'rogers'
p302
I1
sS'released'
p303
I1
sS'consumed'
p304
I5
sS'nighttime'
p305
I1
sS'sandun'
p306
I11
sS'appwebonline'
p307
I2
sS'points'
p308
I18
sS'ahlam'
p309
I1
sS'responded'
p310
I5
sS'came'
p311
I2
sS'bumbalapitiya'
p312
I1
sS'contacted'
p313
I3
sS'prasath'
p314
I1
sS'pops'
p315
I1
sS'colors'
p316
I1
sS'earth'
p317
I1
sS'ungal'
p318
I3
sS'rs.345'
p319
I1
sS'ekaka'
p320
I1
sS'menu'
p321
I2
sS'explain'
p322
I1
sS'appreciated'
p323
I6
sS'lodge'
p324
I20
sS'do'
p325
I105
sS'dm'
p326
I524
sS'di'
p327
I1
sS'watch'
p328
I7
sS'saiyaf'
p329
I2
sS'da'
p330
I1
sS'reinstall'
p331
I2
sS'ema'
p332
I1
sS'covering'
p333
I2
sS'nomathi'
p334
I2
sS'reload'
p335
I10
sS'bad'
p336
I4
sS'dilhani'
p337
I1
sS'well.please'
p338
I1
sS'release'
p339
I1
sS'ilakaththai'
p340
I1
sS'reference'
p341
I49
sS'testing'
p342
I1
sS'reefer'
p343
I1
sS'esclated'
p344
I1
sS'recieve'
p345
I3
sS'depends'
p346
I5
sS'num'
p347
I5
sS'slvspak'
p348
I2
sS'best'
p349
I8
sS'said'
p350
I15
sS'capacity'
p351
I1
sS'ishy'
p352
I2
sS'unable'
p353
I23
sS'dishan'
p354
I1
sS'we'
p355
I526
sS'nature'
p356
I1
sS'blaster'
p357
I5
sS'however'
p358
I36
sS'ww'
p359
I1
sS'unfold'
p360
I1
sS'downgrade'
p361
I1
sS'news'
p362
I3
sS'packages'
p363
I33
sS'improve'
p364
I3
sS'faced'
p365
I6
sS'received'
p366
I12
sS'deepavali'
p367
I1
sS'weemata'
p368
I1
sS'adapter'
p369
I1
sS'against'
p370
I4
sS'games'
p371
I1
sS'gamer'
p372
I1
sS'ourlionsourpride'
p373
I2
sS'login'
p374
I1
sS'inconvenance'
p375
I1
sS'con'
p376
I1
sS'pre'
p377
I3
sS'tone'
p378
I1
sS'miscommunication'
p379
I1
sS'rupavahini'
p380
I1
sS'ajitha'
p381
I1
sS'trust'
p382
I1
sS'esim'
p383
I4
sS'billing'
p384
I5
sS'binge'
p385
I1
sS'been'
p386
I58
sS'commission'
p387
I1
sS'savin'
p388
I1
sS'much'
p389
I14
sS'entered'
p390
I1
sS'sanchala'
p391
I1
sS'forward.also'
p392
I1
sS'website'
p393
I4
sS'life'
p394
I1
sS'revecove'
p395
I1
sS'gishan'
p396
I1
sS'naya'
p397
I1
sS'thibeda'
p398
I1
sS'packageteachers'
p399
I1
sS'catch'
p400
I7
sS'applied'
p401
I4
sS'save'
p402
I4
sS'karannemu'
p403
I2
sS'micheal'
p404
I1
sS'asanga'
p405
I1
sS'sambanda'
p406
I1
sS'balance'
p407
I2
sS'themiya'
p408
I3
sS'reactivated'
p409
I1
sS'chandima'
p410
I1
sS'sticker'
p411
I1
sS'it'
p412
I47
sS'player'
p413
I1
sS'in'
p414
I155
sS'azeera'
p415
I1
sS'id'
p416
I3
sS'conn'
p417
I1
sS'surcharge'
p418
I3
sS'things'
p419
I2
sS'make'
p420
I8
sS'amount'
p421
I8
sS'ayesha'
p422
I1
sS'jennive'
p423
I1
sS'evaluate'
p424
I1
sS'dhammika'
p425
I1
sS'several'
p426
I2
sS'dilum'
p427
I1
sS'european'
p428
I1
sS'satellite'
p429
I4
sS'obage'
p430
I10
sS'rain'
p431
I2
sS'possible'
p432
I17
sS'cincern'
p433
I1
sS'portal'
p434
I3
sS'gaitonde'
p435
I1
sS'characters'
p436
I1
sS'cycle'
p437
I2
sS'shortly'
p438
I5
sS'scenario'
p439
I2
sS'programs'
p440
I1
sS'changes'
p441
I1
sS'humble'
p442
I3
sS'redeem'
p443
I2
sS'contact'
p444
I115
sS'roma'
p445
I1
sS'yourt'
p446
I1
sS'corporate'
p447
I1
sS'yours'
p448
I18
sS'left'
p449
I1
sS'seasonal'
p450
I3
sS'kala'
p451
I2
sS'just'
p452
I1
sS'illana'
p453
I1
sS'cricketer'
p454
I2
sS'sharanya'
p455
I1
sS'assigned'
p456
I10
sS'sadaha'
p457
I1
sS'thanks'
p458
I14
sS'yes'
p459
I33
sS'yet'
p460
I4
sS'mohamed'
p461
I7
sS'previous'
p462
I4
sS'adding'
p463
I2
sS'enters'
p464
I1
sS'instance'
p465
I2
sS'ease'
p466
I1
sS'had'
p467
I12
sS'channels'
p468
I18
sS'has'
p469
I67
sS'municipal'
p470
I1
sS'elders'
p471
I1
sS'breaks'
p472
I1
sS'athanma'
p473
I1
sS'sanin'
p474
I1
sS'apart'
p475
I1
sS'maajith'
p476
I1
sS'appearing'
p477
I1
sS'rukshan'
p478
I3
sS'bpl'
p479
I1
sS'specific'
p480
I6
sS'disconnects'
p481
I1
sS'steps'
p482
I5
sS'night'
p483
I3
sS'preorders'
p484
I2
sS'beneficial'
p485
I1
sS'right'
p486
I1
sS'old'
p487
I2
sS'people'
p488
I3
sS'successfully'
p489
I1
sS'eken'
p490
I1
sS'kajankowsik'
p491
I2
sS'invoice'
p492
I2
sS'ignore'
p493
I2
sS'ranuka'
p494
I3
sS'ums'
p495
I1
sS'wuwahoth'
p496
I1
sS'cheked'
p497
I1
sS'notification'
p498
I2
sS'normal'
p499
I5
sS'haka.1'
p500
I1
sS'everything'
p501
I2
sS'faazel'
p502
I1
sS'foc'
p503
I2
sS'maliki'
p504
I1
sS'christmas'
p505
I1
sS'janith'
p506
I1
sS'pls'
p507
I25
sS'subscriptions'
p508
I1
sS'pilibandawada'
p509
I4
sS'constructive'
p510
I1
sS'discount'
p511
I1
sS'promos'
p512
I2
sS'sadiq'
p513
I1
sS'post'
p514
I6
sS'months'
p515
I4
sS'oba'
p516
I9
sS'plus'
p517
I1
sS'kbps'
p518
I1
sS'raised'
p519
I13
sS'ransara'
p520
I1
sS'ussd'
p521
I3
sS'facility'
p522
I1
sS'ruzaik'
p523
I1
sS'two'
p524
I7
sS'down'
p525
I2
sS'sos'
p526
I1
sS'dilantha'
p527
I2
sS'malcom'
p528
I1
sS'janu'
p529
I1
sS'segment'
p530
I1
sS'support'
p531
I7
sS'nova'
p532
I1
sS'accordingly'
p533
I18
sS'wordpress'
p534
I1
sS'authorized'
p535
I1
sS'way'
p536
I3
sS'sarinda'
p537
I1
sS'was'
p538
I28
sS'happy'
p539
I11
sS'head'
p540
I2
sS'form'
p541
I2
sS'offer'
p542
I35
sS'hear'
p543
I8
sS'decoder'
p544
I2
sS'sanik'
p545
I5
sS'removed'
p546
I2
sS'sent'
p547
I10
sS'miyuru'
p548
I1
sS'attached'
p549
I1
sS'maximum'
p550
I3
sS'devices'
p551
I3
sS'csweek2019'
p552
I3
sS'prioritization'
p553
I2
sS'complications'
p554
I1
sS'examples'
p555
I2
sS'inclusive'
p556
I2
sS'covers'
p557
I2
sS'sometime'
p558
I4
sS'yasiru'
p559
I2
sS'check'
p560
I327
sS'physical'
p561
I1
sS'dushanthi'
p562
I1
sS'possbile'
p563
I1
sS'no'
p564
I32
sS'when'
p565
I12
sS'holding'
p566
I1
sS'test'
p567
I3
sS'labunu'
p568
I1
sS'piyumi'
p569
I1
sS'fathima'
p570
I1
sS'relecant'
p571
I1
sS'welcome'
p572
I62
sS'update'
p573
I31
sS'jalitha'
p574
I1
sS'authorities'
p575
I1
sS'sthuthi'
p576
I1
sS'aliasge'
p577
I1
sS'for'
p578
I492
sS'apology'
p579
I1
sS'reqested'
p580
I2
sS'daily'
p581
I6
sS'icc'
p582
I1
sS'reception'
p583
I3
sS'time'
p584
I52
sS'lineup'
p585
I1
sS'nisala'
p586
I9
sS'ankaya'
p587
I3
sS'activated'
p588
I12
sS'tharindu'
p589
I4
sS'roy'
p590
I2
sS'nathinam'
p591
I2
sS'coudl'
p592
I1
sS'nawran'
p593
I1
sS'recharge'
p594
I3
sS'depend'
p595
I1
sS'clarification'
p596
I1
sS'suthanthiranathan'
p597
I1
sS'graph'
p598
I1
sS'flash'
p599
I1
sS'rengasamy'
p600
I1
sS'netball'
p601
I1
sS'sarahxm'
p602
I1
sS'countdown'
p603
I1
sS'answered'
p604
I1
sS'finally'
p605
I1
sS'kolitha'
p606
I5
sS'permanently'
p607
I1
sS'addon'
p608
I1
sS'division'
p609
I23
sS'smartphone'
p610
I1
sS'prepaid'
p611
I8
sS'kumar'
p612
I1
sS'choice'
p613
I2
sS'trouble'
p614
I1
sS'exact'
p615
I31
sS'raashid'
p616
I1
sS'zalmi'
p617
I3
sS'level'
p618
I1
sS'did'
p619
I12
sS'solved'
p620
I3
sS'settle'
p621
I5
sS'team'
p622
I99
sS'fprward'
p623
I1
sS'prevent'
p624
I1
sS'regret'
p625
I4
sS'amila'
p626
I1
sS'bambalapitya'
p627
I1
sS'ashan'
p628
I1
sS'arshath'
p629
I1
sS'cost'
p630
I1
sS'port'
p631
I2
sS'assistance'
p632
I26
sS'current'
p633
I8
sS'shared'
p634
I6
sS'raveen'
p635
I1
sS'celebrates'
p636
I1
sS'install'
p637
I1
sS'vidula'
p638
I1
sS'please.1'
p639
I1
sS'understanding'
p640
I2
sS'downloaded'
p641
I1
sS'upgrade'
p642
I3
sS'address'
p643
I16
sS'along'
p644
I17
sS'appears'
p645
I2
sS'change'
p646
I6
sS'wait'
p647
I2
sS'preorder'
p648
I4
sS'hbo'
p649
I1
sS'redemption'
p650
I1
sS'irshad'
p651
I1
sS'shift'
p652
I1
sS'eke'
p653
I1
sS'jay'
p654
I2
sS'step'
p655
I2
sS'eka'
p656
I20
sS'hbb'
p657
I7
sS'queue'
p658
I1
sS'suggestion'
p659
I18
sS'boo'
p660
I2
sS'usually'
p661
I2
sS't20'
p662
I5
sS'apprecite'
p663
I1
sS'chamika'
p664
I1
sS'inconvience'
p665
I1
sS'love'
p666
I1
sS'extra'
p667
I3
sS'sincerely'
p668
I6
sS'fake'
p669
I2
sS'handled'
p670
I1
sS'working'
p671
I15
sS'vowifi'
p672
I4
sS'mehi'
p673
I1
sS'visit'
p674
I15
sS'sports'
p675
I6
sS'live'
p676
I3
sS'iphone'
p677
I13
sS'isama'
p678
I1
sS'black'
p679
I1
sS'today'
p680
I7
sS'sharing'
p681
I9
sS'sessions'
p682
I1
sS'club'
p683
I6
sS'yoshitha'
p684
I2
sS'validity'
p685
I3
sS'shafrul'
p686
I1
sS'manoraj'
p687
I1
sS'apahasuthawayata'
p688
I1
sS'behalf'
p689
I1
sS'valued'
p690
I1
sS'hussey'
p691
I1
sS'car'
p692
I1
sS'cap'
p693
I1
sS'can'
p694
I135
sS'slowness'
p695
I2
sS'following'
p696
I15
sS'making'
p697
I1
sS'nearest'
p698
I3
sS'dedicated'
p699
I1
sS'stream'
p700
I2
sS'december'
p701
I9
sS'agent'
p702
I5
sS'council'
p703
I1
sS'tiran'
p704
I1
sS'occur'
p705
I1
sS'gayan'
p706
I3
sS'ramesh'
p707
I2
sS'requirements'
p708
I1
sS'winter'
p709
I1
sS'till'
p710
I5
sS'damana'
p711
I1
sS'esims'
p712
I1
sS'themiiya'
p713
I1
sS'madushan'
p714
I1
sS'obawa'
p715
I1
sS'ruchaka'
p716
I1
sS'product'
p717
I2
sS'bawa'
p718
I5
sS'same.1'
p719
I3
sS'may'
p720
I32
sS'max'
p721
I1
sS'danum'
p722
I5
sS'membership'
p723
I2
sS'birthday'
p724
I3
sS'designed'
p725
I7
sS'date'
p726
I19
sS'such'
p727
I8
sS'inakka'
p728
I1
sS'data'
p729
I104
sS'accordingly.1'
p730
I1
sS'sr'
p731
I1
sS'nehavarshney'
p732
I1
sS'inform'
p733
I17
sS'irsath'
p734
I1
sS'so'
p735
I44
sS'deposit'
p736
I2
sS'sl'
p737
I1
sS'representation'
p738
I1
sS'talk'
p739
I1
sS'sd'
p740
I6
sS'refund'
p741
I4
sS'exclusive'
p742
I3
sS'tagged'
p743
I3
sS'serving'
p744
I1
sS'samitha'
p745
I5
sS'deactivated'
p746
I1
sS'displayed'
p747
I1
sS'walata'
p748
I1
sS'niroshan'
p749
I1
sS'damage'
p750
I1
sS'course'
p751
I2
sS'still'
p752
I12
sS'blocked'
p753
I5
sS'disconnect'
p754
I5
sS'thank'
p755
I53
sS'fayaz'
p756
I1
sS'offers'
p757
I6
sS'sitimu'
p758
I2
sS'requir'
p759
I1
sS'ours'
p760
I2
sS'deducting'
p761
I1
sS'main'
p762
I1
sS'appbank'
p763
I2
sS'happened'
p764
I1
sS'non'
p765
I1
sS'qualifies'
p766
I1
sS'matches'
p767
I3
sS'sherine'
p768
I1
sS'sooner'
p769
I1
sS'achini'
p770
I1
sS'mbb'
p771
I1
sS'subscribers'
p772
I1
sS'not'
p773
I67
sS'sorted'
p774
I7
sS'nov'
p775
I1
sS'now'
p776
I20
sS'thilina'
p777
I2
sS'nor'
p778
I1
sS'possess'
p779
I1
sS'wont'
p780
I1
sS'name'
p781
I8
sS'january'
p782
I1
sS'drop'
p783
I1
sS'revert'
p784
I7
sS'possibilities'
p785
I1
sS'nathesh'
p786
I2
sS'h'
p787
I1
sS'thamuru'
p788
I1
sS'semifinal'
p789
I1
sS'bathiya'
p790
I3
sS'mydialogapp'
p791
I2
sS'revised'
p792
I1
sS'tharux'
p793
I1
sS'entering'
p794
I1
sS'ez'
p795
I1
sS'happen'
p796
I3
sS'requesting'
p797
I1
sS'nuzrad'
p798
I2
sS'plans'
p799
I3
sS'shown'
p800
I2
sS'tharuka'
p801
I1
sS'furthermore'
p802
I1
sS'interference'
p803
I7
sS'looking'
p804
I3
sS'investigation'
p805
I3
sS'internet'
p806
I5
sS'sanjana'
p807
I3
sS'receiving'
p808
I3
sS'correct'
p809
I5
sS'nishard'
p810
I1
sS'after'
p811
I15
sS'anwar'
p812
I1
sS'dispatched'
p813
I1
sS'yours.this'
p814
I1
sS'possibility'
p815
I2
sS'apata'
p816
I1
sS'kalinga'
p817
I3
sS'unwanted'
p818
I1
sS'maheshj'
p819
I1
sS'yaqub'
p820
I1
sS'card'
p821
I15
sS'jwp'
p822
I1
sS'initiate'
p823
I1
sS'place'
p824
I4
sS'router'
p825
I22
sS'promotion'
p826
I2
sS'discontinued'
p827
I3
sS'dileepa'
p828
I1
sS'pilibadawa'
p829
I2
sS'praveendeshai'
p830
I1
sS'spoken'
p831
I1
sS'one'
p832
I22
sS'directly'
p833
I1
sS'carry'
p834
I1
sS'xs'
p835
I1
sS'message'
p836
I15
sS'forwarding'
p837
I2
sS'open'
p838
I5
sS'tomorrow'
p839
I3
sS'little'
p840
I2
sS'checked'
p841
I12
sS'krishmal'
p842
I2
sS'lanka'
p843
I16
sS'dawns'
p844
I1
sS'indika'
p845
I5
sS'white'
p846
I2
sS'offsderanas'
p847
I1
sS'friend'
p848
I3
sS'information.kindly'
p849
I1
sS'incconvinces'
p850
I1
sS'shifan'
p851
I1
sS'mema'
p852
I1
sS'hub'
p853
I5
sS'that'
p854
I369
sS'ownership'
p855
I1
sS'season'
p856
I1
sS'broadcast'
p857
I3
sS'nishan'
p858
I1
sS'nuwan'
p859
I2
sS'copy'
p860
I1
sS'than'
p861
I8
sS'thirinayak'
p862
I1
sS'television'
p863
I14
sS'nathan'
p864
I1
sS'unfortunately'
p865
I4
sS'require'
p866
I1
sS'future'
p867
I4
sS'iflix'
p868
I2
sS'were'
p869
I32
sS'cards'
p870
I3
sS'accessed'
p871
I2
sS'russia'
p872
I1
sS'and'
p873
I563
sS'addressing'
p874
I1
sS'sam'
p875
I2
sS'pro'
p876
I3
sS'contactable'
p877
I1
sS'locations'
p878
I1
sS'prestigious'
p879
I1
sS'rimzan'
p880
I1
sS'uninterrupted'
p881
I1
sS'regards'
p882
I43
sS'saw'
p883
I1
sS'any'
p884
I175
sS'dialogblaze2'
p885
I1
sS'ngage'
p886
I13
sS'concern.appreciate'
p887
I1
sS'note'
p888
I272
sS'equipment'
p889
I2
sS'adala'
p890
I4
sS'take'
p891
I29
sS'online'
p892
I5
sS'devsini'
p893
I1
sS'channel'
p894
I46
sS'bets'
p895
I1
sS'sure'
p896
I4
sS'multiple'
p897
I2
sS'investigations'
p898
I2
sS'buffer'
p899
I4
sS'price'
p900
I4
sS'paid'
p901
I7
sS'tweetupsl'
p902
I2
sS'anushan'
p903
I1
sS'complaints'
p904
I3
sS'sachintha'
p905
I2
sS'vishwa'
p906
I5
sS'losliya'
p907
I1
sS'wimata'
p908
I1
sS'data.time'
p909
I1
sS'uninstall'
p910
I2
sS'shot'
p911
I8
sS'show'
p912
I1
sS'ikmanin'
p913
I1
sS'representatives'
p914
I1
sS'colombo'
p915
I2
sS'arrears'
p916
I1
sS'corner'
p917
I1
sS'feedback'
p918
I44
sS'nazeefa'
p919
I1
sS'slow'
p920
I1
sS'discounts'
p921
I1
sS'written'
p922
I1
sS'only'
p923
I34
sS'going'
p924
I1
sS'int99'
p925
I1
sS'arvind'
p926
I1
sS'same.we'
p927
I1
sS'osse'
p928
I1
sS'hisham'
p929
I1
sS'get'
p930
I56
sS'ijaz'
p931
I2
sS'gazette'
p932
I1
sS'samawa'
p933
I1
sS'cannot'
p934
I8
sS'outlet'
p935
I12
sS'geo'
p936
I4
sS'is'
p937
I214
sS'regarding'
p938
I38
sS'settings'
p939
I1
sS'packagegovernment'
p940
I1
sS'celebrate'
p941
I2
sS'borrow'
p942
I1
sS'abans'
p943
I1
sS'morning'
p944
I3
sS'where'
p945
I7
sS'communicated'
p946
I1
sS'vision'
p947
I6
sS'chinthaka'
p948
I4
sS'espn'
p949
I2
sS'connections'
p950
I13
sS'anyways'
p951
I1
sS'parking'
p952
I1
sS'apologies'
p953
I134
sS'calendar'
p954
I1
sS'concern'
p955
I109
sS'telecasted'
p956
I3
sS'rs.1377'
p957
I1
sS'ways'
p958
I1
sS'review'
p959
I1
sS'sites'
p960
I5
sS'raaziya'
p961
I1
sS'enough'
p962
I2
sS'between'
p963
I5
sS'inorder'
p964
I4
sS'viuhub'
p965
I1
sS'dilruk'
p966
I1
sS'notice'
p967
I2
sS'august'
p968
I1
sS'screen'
p969
I11
sS'kettukkolkindrom'
p970
I1
sS'awards'
p971
I3
sS'article'
p972
I1
sS'come'
p973
I2
sS'rugby'
p974
I8
sS'musthaq'
p975
I1
sS'many'
p976
I5
sS'according'
p977
I7
sS'called'
p978
I1
sS'tour'
p979
I7
sS'holders'
p980
I1
sS'prices6449anytime'
p981
I1
sS'appreviate'
p982
I1
sS'comes'
p983
I2
sS'allowance'
p984
I1
sS'udesh'
p985
I1
sS'among'
p986
I2
sS'thawama'
p987
I1
sS'period'
p988
I6
sS'confirm'
p989
I10
sS'prasad'
p990
I1
sS'considering'
p991
I1
sS'west'
p992
I1
sS'porsche'
p993
I1
sS'informed'
p994
I41
sS'escalated'
p995
I14
sS'waqar'
p996
I1
sS'moolamaha'
p997
I1
sS'nilesh'
p998
I1
sS'andrew'
p999
I2
sS'referrin'
p1000
I1
sS'hashtag'
p1001
I2
sS'installation'
p1002
I1
sS'irrelevant'
p1003
I2
sS'those'
p1004
I2
sS'disconnected'
p1005
I9
sS'these'
p1006
I13
sS'safra'
p1007
I1
sS'cash'
p1008
I3
sS'rizbad'
p1009
I1
sS'ongoing'
p1010
I3
sS'situation'
p1011
I2
sS'nafeesmn'
p1012
I1
sS'mismatch'
p1013
I1
sS'sincere'
p1014
I4
sS'dedicate'
p1015
I1
sS'pressing'
p1016
I1
sS'technology'
p1017
I2
sS'avilable'
p1018
I1
sS'verified'
p1019
I1
sS'doctor'
p1020
I1
sS'pay'
p1021
I2
sS'wiya'
p1022
I1
sS'senura'
p1023
I1
sS'chrishan'
p1024
I1
sS'inquiry'
p1025
I1
sS'status'
p1026
I4
sS'ifran'
p1027
I1
sS'investigated'
p1028
I1
sS'screenshot'
p1029
I10
sS'singapore'
p1030
I1
sS'assist'
p1031
I217
sS'allocation'
p1032
I1
sS'advertisement'
p1033
I1
sS'changing'
p1034
I2
sS'totally'
p1035
I2
sS'cartoon'
p1036
I1
sS'rasikalink'
p1037
I1
sS'thedialog'
p1038
I1
sS'charges'
p1039
I8
sS'note10'
p1040
I1
sS'without'
p1041
I4
sS'launched'
p1042
I1
sS'genie'
p1043
I5
sS'model'
p1044
I27
sS'reward'
p1045
I1
sS'charged'
p1046
I6
sS'malicious'
p1047
I1
sS'pakistan'
p1048
I2
sS'being'
p1049
I8
sS'maduka'
p1050
I1
sS'actions'
p1051
I1
sS'recycled'
p1052
I1
sS'ch'
p1053
I1
sS'cease'
p1054
I1
sS'touch'
p1055
I14
sS'speed'
p1056
I13
sS'application'
p1057
I1
sS'seems'
p1058
I3
sS'lets'
p1059
I2
sS'ajita'
p1060
I1
sS'momentum'
p1061
I1
sS'scheduled'
p1062
I1
sS'aspects'
p1063
I2
sS'around'
p1064
I1
sS'wish.this'
p1065
I1
sS'early'
p1066
I2
sS'preference'
p1067
I1
sS'using'
p1068
I8
sS'azky'
p1069
I1
sS'relavant'
p1070
I2
sS'musicetc'
p1071
I2
sS'facing'
p1072
I44
sS'nuzaik'
p1073
I1
sS'thameera'
p1074
I2
sS'either'
p1075
I2
sS'priyantha'
p1076
I1
sS'trying'
p1077
I3
sS'dinesh'
p1078
I6
sS'competition'
p1079
I1
sS'tstv'
p1080
I1
sS'users'
p1081
I11
sS'provided'
p1082
I17
sS'viraj'
p1083
I3
sS'models'
p1084
I1
sS'provider'
p1085
I4
sS'refer'
p1086
I32
sS'reactivating'
p1087
I1
sS'power'
p1088
I2
sS'asap'
p1089
I15
sS'iconic'
p1090
I3
sS'roaming'
p1091
I8
sS'exciting'
p1092
I4
sS'on'
p1093
I456
sS'ok'
p1094
I1
sS'package'
p1095
I34
sS'karai'
p1096
I1
sS'sri'
p1097
I23
sS'favorite'
p1098
I1
sS'shalana'
p1099
I1
sS'informing'
p1100
I1
sS'escalating'
p1101
I2
sS'shashika'
p1102
I1
sS'stand'
p1103
I6
sS'youve'
p1104
I5
sS'referred'
p1105
I1
sS'or'
p1106
I88
sS'upul'
p1107
I1
sS'communication'
p1108
I1
sS'image'
p1109
I3
sS'apage'
p1110
I3
sS'ragulan'
p1111
I1
sS'references'
p1112
I1
sS'inbox'
p1113
I60
sS'parties'
p1114
I1
sS'operator'
p1115
I2
sS'your'
p1116
I601
sS'pawasanne'
p1117
I2
sS'forwarded'
p1118
I2
sS'area'
p1119
I3
sS'anshya'
p1120
I1
sS'there'
p1121
I53
sS'hey'
p1122
I5
sS'start'
p1123
I2
sS'compliant'
p1124
I9
sS'chinthana'
p1125
I1
sS'stars'
p1126
I1
sS'zee5'
p1127
I1
sS'ehi'
p1128
I1
sS'gbnighttime'
p1129
I1
sS'complete'
p1130
I3
sS'bawin'
p1131
I1
sS'exsisting'
p1132
I1
sS'regard'
p1133
I10
sS'promote'
p1134
I1
sS'with'
p1135
I236
sS'tenaga'
p1136
I3
sS'siduwee'
p1137
I1
sS'october'
p1138
I1
sS'buddhika'
p1139
I4
sS'default'
p1140
I1
sS'tones'
p1141
I1
sS'prbath'
p1142
I1
sS'detailed'
p1143
I1
sS'gone'
p1144
I1
sS'videos'
p1145
I3
sS'cinema'
p1146
I1
sS'certain'
p1147
I5
sS'describe'
p1148
I1
sS'am'
p1149
I3
sS'watches'
p1150
I1
sS'an'
p1151
I57
sS'below.to'
p1152
I2
sS'as'
p1153
I143
sS'at'
p1154
I37
sS'fill'
p1155
I1
sS'again'
p1156
I4
sS'receive'
p1157
I10
sS'athnam'
p1158
I1
sS'details3'
p1159
I1
sS'valid'
p1160
I8
sS'lakshitha'
p1161
I6
sS'you'
p1162
I1136
sS'requested'
p1163
I14
sS'championship'
p1164
I1
sS'nazer'
p1165
I1
sS'rukshana'
p1166
I1
sS'gifts'
p1167
I3
sS'coverage'
p1168
I29
sS'chris'
p1169
I1
sS'selfcare'
p1170
I1
sS'azeem'
p1171
I2
sS'connecion'
p1172
I1
sS'remote'
p1173
I3
sS'calls'
p1174
I9
sS'mafaz'
p1175
I1
sS'wifi'
p1176
I3
sS'fraudulent'
p1177
I1
sS'resolution'
p1178
I4
sS'original'
p1179
I3
sS'jayakody'
p1180
I1
sS'needful'
p1181
I5
sS'amjath'
p1182
I1
sS'consider'
p1183
I4
sS'prioritized'
p1184
I1
sS'irosha'
p1185
I2
sS'caused'
p1186
I198
sS'assistamve'
p1187
I1
sS'month'
p1188
I5
sS'dish'
p1189
I1
sS'follow'
p1190
I2
sS'kuband'
p1191
I3
sS'gb4g'
p1192
I1
sS'referring'
p1193
I82
sS'tv'
p1194
I29
sS'paribokiyanwa'
p1195
I1
sS'to'
p1196
I954
sS'program'
p1197
I2
sS'dhaneshka'
p1198
I1
sS'wellawaya'
p1199
I1
sS'enjoying'
p1200
I1
sS'dilanka'
p1201
I3
sS'jeshreen'
p1202
I2
sS'appointment'
p1203
I2
sS'song'
p1204
I2
sS'very'
p1205
I14
sS'dsi'
p1206
I1
sS'yazeer'
p1207
I1
sS'fan'
p1208
I1
sS'decide'
p1209
I1
sS'sony'
p1210
I16
sS'rushda'
p1211
I1
sS'ekak'
p1212
I8
sS'poya'
p1213
I1
sS'applicable'
p1214
I4
sS'koorungal'
p1215
I1
sS'small'
p1216
I2
sS'programme'
p1217
I3
sS'escalation'
p1218
I1
sS'ten'
p1219
I11
sS'randika'
p1220
I1
sS'zero'
p1221
I1
sS'design'
p1222
I1
sS'displays'
p1223
I1
sS'pass'
p1224
I9
sS'further'
p1225
I28
sS'functioning'
p1226
I1
sS'dial'
p1227
I7
sS'section'
p1228
I1
sS'anniversary'
p1229
I1
sS'full.however'
p1230
I1
sS'version'
p1231
I6
sS'kirimata'
p1232
I1
sS'activations'
p1233
I2
sS'method'
p1234
I16
sS'full'
p1235
I3
sS'hours'
p1236
I1
sS'seni'
p1237
I6
sS'investigating'
p1238
I3
sS'november'
p1239
I4
sS'commercially'
p1240
I1
sS'search'
p1241
I3
sS'ahead'
p1242
I1
sS'allows'
p1243
I1
sS'telecast'
p1244
I4
sS'experience'
p1245
I13
sS'heshman'
p1246
I1
sS'prior'
p1247
I2
sS'airport'
p1248
I1
sS'social'
p1249
I10
sS'action'
p1250
I3
sS'options'
p1251
I1
sS'nailbiting'
p1252
I1
sS'via'
p1253
I129
sS'marginal'
p1254
I3
sS'viv'
p1255
I1
sS'smae'
p1256
I1
sS'viu'
p1257
I11
sS'select'
p1258
I5
sS'readily'
p1259
I1
sS'dificulties'
p1260
I1
sS'khan'
p1261
I1
sS'proceed'
p1262
I4
sS'charge'
p1263
I11
sS'vote'
p1264
I1
sS'wisin'
p1265
I1
sS'unpleasant'
p1266
I1
sS'taken'
p1267
I2
sS'luqmaan'
p1268
I1
sS'more'
p1269
I59
sS'mydialog'
p1270
I23
sS'relevant'
p1271
I208
sS'company'
p1272
I1
sS'accrodingly'
p1273
I1
sS'tested'
p1274
I1
sS'particular'
p1275
I2
sS'known'
p1276
I3
sS'kasun'
p1277
I5
sS'glad'
p1278
I9
sS'town'
p1279
I1
sS'hildon'
p1280
I1
sS'nona'
p1281
I1
sS'science'
p1282
I1
sS'amra'
p1283
I1
sS'dev'
p1284
I1
sS'trcsl'
p1285
I2
sS'indicating'
p1286
I3
sS'learn'
p1287
I1
sS'dec'
p1288
I2
sS'history'
p1289
I2
sS'susbcribers'
p1290
I1
sS'prompt'
p1291
I1
sS'stated'
p1292
I1
sS'prabuddha'
p1293
I1
sS'share'
p1294
I164
sS'accept'
p1295
I25
sS'pushed'
p1296
I1
sS'minimum'
p1297
I1
sS'numbers'
p1298
I15
sS'purchased'
p1299
I2
sS'rasika'
p1300
I1
sS'deshan'
p1301
I1
sS'bhathiya'
p1302
I1
sS'information'
p1303
I14
sS'respective'
p1304
I13
sS'praveen'
p1305
I2
sS'utilize'
p1306
I2
sS'apaya'
p1307
I1
sS'aravinda'
p1308
I1
sS'smss'
p1309
I1
sS'tried'
p1310
I2
sS'you.hence'
p1311
I1
sS'shanmugan'
p1312
I1
sS'different'
p1313
I2
sS'connectivity'
p1314
I1
sS'fb'
p1315
I3
sS'number2'
p1316
I2
sS'coming'
p1317
I4
sS'iwath'
p1318
I1
sS'response'
p1319
I1
sS'killermoiz'
p1320
I1
sS'a'
p1321
I267
sS'short'
p1322
I3
sS'vijay'
p1323
I5
sS'register'
p1324
I1
sS'anytime'
p1325
I13
sS'egt'
p1326
I1
sS'broadcasting'
p1327
I1
sS'media'
p1328
I3
sS'banks'
p1329
I1
sS'facebook'
p1330
I3
sS'rentals'
p1331
I1
sS'aqeel'
p1332
I3
sS'mahirumaaru'
p1333
I1
sS'replied'
p1334
I34
sS'slvnz'
p1335
I1
sS'kushan'
p1336
I1
sS'help'
p1337
I10
sS'september'
p1338
I1
sS'soon'
p1339
I16
sS'installed'
p1340
I3
sS'held'
p1341
I1
sS'umesh'
p1342
I1
sS'through'
p1343
I14
sS'same'
p1344
I315
sS'reconnect'
p1345
I1
sS'its'
p1346
I12
sS'inquiries'
p1347
I1
sS'randula'
p1348
I1
sS'athara'
p1349
I2
sS'billers'
p1350
I2
sS'reluctance'
p1351
I1
sS'conenction'
p1352
I2
sS'saajidh'
p1353
I1
sS'systems'
p1354
I1
sS'nimesh'
p1355
I4
sS'might'
p1356
I3
sS'abdul'
p1357
I1
sS'evening'
p1358
I1
sS'anticipated'
p1359
I2
sS'amalsha'
p1360
I6
sS'complain'
p1361
I20
sS'easily'
p1362
I2
sS'janaki'
p1363
I2
sS'occasions'
p1364
I1
sS'founded.happy'
p1365
I1
sS'janaka'
p1366
I1
sS'token'
p1367
I3
sS'soya'
p1368
I2
sS'loction'
p1369
I1
sS'ports'
p1370
I1
sS'shageevan'
p1371
I1
sS'heavy'
p1372
I1
sS'week'
p1373
I2
sS'anka'
p1374
I1
sS'iffath'
p1375
I1
sS'idea'
p1376
I2
sS'finish'
p1377
I1
sS'connect'
p1378
I4
sS'blasterunlimited'
p1379
I1
sS'event'
p1380
I3
sS'really'
p1381
I28
sS'try'
p1382
I4
sS'missed'
p1383
I1
sS'p'
p1384
I1
sS'sambandawa'
p1385
I1
sS'kanagatuyi'
p1386
I1
sS'ramishka'
p1387
I1
sS'issue'
p1388
I95
sS'kapune'
p1389
I1
sS'laba'
p1390
I1
sS'labe'
p1391
I1
sS'upon'
p1392
I3
sS'difficulty'
p1393
I5
sS'reason'
p1394
I4
sS'base'
p1395
I8
sS'unbderstand'
p1396
I1
sS'members'
p1397
I5
sS'put'
p1398
I1
sS'earliest'
p1399
I2
sS'generate'
p1400
I1
sS'definition'
p1401
I2
sS'elsirlanky'
p1402
I1
sS'benefits'
p1403
I3
sS'launch'
p1404
I4
sS'persists'
p1405
I1
sS'ideamart'
p1406
I1
sS'uopdate'
p1407
I1
sS'mobex'
p1408
I1
sS'sathish'
p1409
I1
sS'dont'
p1410
I2
sS'feel'
p1411
I4
sS'number'
p1412
I566
sS'broadcasted'
p1413
I1
sS'utilized'
p1414
I9
sS'done'
p1415
I6
sS'sumudu'
p1416
I1
sS'inshaf'
p1417
I1
sS'miss'
p1418
I1
sS'differ'
p1419
I1
sS'leading'
p1420
I3
sS'rwc19'
p1421
I2
sS'damidu'
p1422
I1
sS'station'
p1423
I2
sS'nasheeth'
p1424
I2
sS'passed'
p1425
I6
sS'master'
p1426
I1
sS'chamila'
p1427
I1
sS'beileve'
p1428
I1
sS'listed'
p1429
I1
sS'option'
p1430
I8
sS'part'
p1431
I3
sS'favorable'
p1432
I10
sS'off'
p1433
I5
sS'believe'
p1434
I3
sS'inboxed'
p1435
I1
sS'kind'
p1436
I5
sS'throttle'
p1437
I1
sS'kindly'
p1438
I482
sS'double'
p1439
I1
sS'danu'
p1440
I1
sS'kisho'
p1441
I1
sS'rs.5'
p1442
I1
sS'invoices'
p1443
I1
sS'dtv'
p1444
I7
sS'interactive'
p1445
I1
sS'outstanding'
p1446
I7
sS'caused.please'
p1447
I1
sS'sewawa'
p1448
I2
sS'needs'
p1449
I1
sS'download'
p1450
I2
sS'kara'
p1451
I6
sS'gala'
p1452
I1
sS'categorized'
p1453
I1
sS'pasan'
p1454
I1
sS'arshad'
p1455
I1
sS's20'
p1456
I5
sS'also'
p1457
I12
sS'internal'
p1458
I1
sS'aired'
p1459
I1
sS'towards'
p1460
I2
sS'amal'
p1461
I2
sS'inconvenience'
p1462
I211
sS'reach'
p1463
I17
sS'quota'
p1464
I5
sS'incovenience'
p1465
I1
sS'dulakshan'
p1466
I1
sS'most'
p1467
I69
sS'plan'
p1468
I6
sS'gopi'
p1469
I1
sS'services'
p1470
I15
sS'mohemed'
p1471
I1
sS'extremely'
p1472
I18
sS'zaeem'
p1473
I1
sS'value'
p1474
I18
sS'mobile'
p1475
I108
sS'clear'
p1476
I7
sS'sometimes'
p1477
I1
sS'cover'
p1478
I1
sS'karanne'
p1479
I1
sS'gold'
p1480
I1
sS'msmendiz'
p1481
I1
sS'persecond'
p1482
I1
sS'session'
p1483
I1
sS'modelin'
p1484
I1
sS'aplogies'
p1485
I1
sS'hakida'
p1486
I1
sS'inconveniences'
p1487
I14
sS'screenshots'
p1488
I2
sS'find'
p1489
I2
sS'access'
p1490
I4
sS'music'
p1491
I8
sS'machines.kindly'
p1492
I1
sS'less'
p1493
I4
sS'sentoran'
p1494
I1
sS'zaman'
p1495
I5
sS'udana'
p1496
I1
sS'weve'
p1497
I11
sS'hit'
p1498
I1
sS'occuring'
p1499
I1
sS'banking'
p1500
I3
sS'banned'
p1501
I1
sS'rest'
p1502
I1
sS'reply'
p1503
I3
sS'during'
p1504
I9
sS'restart'
p1505
I1
sS'resolve'
p1506
I1
sS'rebranded'
p1507
I1
sS'teams'
p1508
I3
sS'remove'
p1509
I2
sS'vithushaan'
p1510
I2
sS'investigate'
p1511
I4
sS'common'
p1512
I1
sS'noadditional'
p1513
I2
sS'kindlu'
p1514
I1
sS'arjun'
p1515
I1
sS'chaminda'
p1516
I2
sS'ekata'
p1517
I1
sS'bars'
p1518
I8
sS'set'
p1519
I1
sS'haraha'
p1520
I2
sS'realavant'
p1521
I1
sS'close'
p1522
I1
sS'dumi'
p1523
I3
sS'deactivate'
p1524
I3
sS'movie'
p1525
I3
sS'currently'
p1526
I18
sS'please'
p1527
I467
sS'won'
p1528
I3
sS'wetha'
p1529
I8
sS'donate'
p1530
I3
sS'nope'
p1531
I1
sS'nalinda'
p1532
I1
sS'jehan'
p1533
I1
sS'available'
p1534
I29
sS'infas'
p1535
I1
sS'attention'
p1536
I2
sS'pathak'
p1537
I1
sS'bronze'
p1538
I1
sS'both'
p1539
I7
sS'last'
p1540
I4
sS'license'
p1541
I2
sS'azaff'
p1542
I2
sS'tweetupsl2'
p1543
I1
sS'sensitive'
p1544
I1
sS'connection'
p1545
I563
sS'incoviences'
p1546
I1
sS'mean'
p1547
I1
sS'upgraded'
p1548
I2
sS'iphone11'
p1549
I2
sS'elaborating'
p1550
I1
sS'point'
p1551
I1
sS'reasons'
p1552
I2
sS'loan'
p1553
I1
sS'agents'
p1554
I5
sS'samawanna'
p1555
I3
sS'experiencing'
p1556
I28
sS'devin'
p1557
I1
sS'belwo'
p1558
I1
sS'described'
p1559
I1
sS'raise'
p1560
I2
sS'app.appreciate'
p1561
I1
sS'monthly'
p1562
I1
sS'reasons.non'
p1563
I1
sS'due'
p1564
I22
sS'nabris'
p1565
I1
sS'strengthen'
p1566
I1
sS'inoka'
p1567
I1
sS'maintenance'
p1568
I2
sS'dama'
p1569
I1
sS'pm'
p1570
I2
sS'sending'
p1571
I5
sS'great'
p1572
I3
sS'understand'
p1573
I19
sS'shehan'
p1574
I6
sS'prices'
p1575
I4
sS'dialing'
p1576
I4
sS'highyl'
p1577
I1
sS'udara'
p1578
I1
sS'look'
p1579
I4
sS'bill'
p1580
I15
sS'technical'
p1581
I5
sS'while'
p1582
I5
sS'replaced'
p1583
I2
sS'behavior'
p1584
I2
sS'error'
p1585
I19
sS'dms'
p1586
I4
sS'im_muba'
p1587
I4
sS'resolved'
p1588
I3
sS'dialog.available'
p1589
I1
sS'encountered'
p1590
I2
sS'afkar'
p1591
I1
sS'rohan'
p1592
I2
sS'lodged'
p1593
I22
sS'seen'
p1594
I1
sS'lada'
p1595
I2
sS'rasiika'
p1596
I1
sS'sangakkara'
p1597
I1
sS'since'
p1598
I12
sS'rugbyworldcup19'
p1599
I2
sS'reachable'
p1600
I15
sS'advise'
p1601
I5
sS'rifai'
p1602
I3
sS'rifak'
p1603
I3
sS'higher'
p1604
I3
sS'saiyaff'
p1605
I2
sS'used'
p1606
I2
sS'bonus'
p1607
I19
sS'alert'
p1608
I1
sS'moment'
p1609
I8
sS'user'
p1610
I5
sS'deepak'
p1611
I2
sS'lower'
p1612
I1
sS'channelpartner'
p1613
I1
sS'dialog.skypeline'
p1614
I1
sS'ypu'
p1615
I1
sS'gajaman'
p1616
I1
sS'person'
p1617
I1
sS'zimbabwe'
p1618
I1
sS'engalukku'
p1619
I1
sS'thoroughly'
p1620
I2
sS'stating'
p1621
I1
sS'ambassador'
p1622
I2
sS'rs.100'
p1623
I3
sS'thanushan'
p1624
I1
sS'cricketwithdialog'
p1625
I3
sS'mytv'
p1626
I6
sS'shape'
p1627
I1
sS'siduvu'
p1628
I1
sS'world'
p1629
I9
sS'alternative'
p1630
I6
sS'hatem'
p1631
I1
sS'srimal'
p1632
I2
sS'cup'
p1633
I8
sS'informal'
p1634
I1
sS'alternate'
p1635
I2
sS'akhila'
p1636
I4
sS'exclusively'
p1637
I1
sS'signals'
p1638
I10
sS'narambiya'
p1639
I1
sS'location'
p1640
I112
sS'excited'
p1641
I2
sS'thilanka'
p1642
I1
sS'australia'
p1643
I2
sS'covearage'
p1644
I1
sS'finalize'
p1645
I1
sS'big'
p1646
I1
sS'mugunthan'
p1647
I1
sS'matters'
p1648
I1
sS'game'
p1649
I3
sS'biz'
p1650
I2
sS'ranul'
p1651
I1
sS'lanil'
p1652
I1
sS'bit'
p1653
I1
sS'myuse'
p1654
I1
sS'imposed'
p1655
I4
sS'signal'
p1656
I51
sS'separately'
p1657
I1
sS'collect'
p1658
I1
sS'continue'
p1659
I2
sS'appreciaate'
p1660
I1
sS'requestto'
p1661
I1
sS'essential'
p1662
I1
sS'google'
p1663
I2
sS'methods'
p1664
I8
sS'some'
p1665
I12
sS'back'
p1666
I20
sS'streaming'
p1667
I2
sS'added'
p1668
I2
sS'pricing'
p1669
I1
sS'kasib'
p1670
I1
sS'gataluwa'
p1671
I1
sS'broadband'
p1672
I135
sS'irfan'
p1673
I1
sS'exceeding'
p1674
I2
sS'per'
p1675
I17
sS'seller'
p1676
I1
sS'oshila'
p1677
I6
sS'innovation'
p1678
I2
sS'be'
p1679
I165
sS'processing'
p1680
I1
sS'agreement'
p1681
I9
sS'shareable'
p1682
I2
sS'usd'
p1683
I1
sS'below.1'
p1684
I1
sS'by'
p1685
I31
sS'menda'
p1686
I2
sS'anything'
p1687
I1
sS'netflix'
p1688
I9
sS'completing'
p1689
I1
sS'shuja'
p1690
I2
sS'drama'
p1691
I5
sS'range'
p1692
I1
sS'dialog'
p1693
I113
sS'suhail'
p1694
I1
sS'messaging'
p1695
I2
sS'idd'
p1696
I2
sS'womens'
p1697
I1
sS'block'
p1698
I26
sS'into'
p1699
I7
sS'within'
p1700
I5
sS'retailer'
p1701
I1
sS'vaas'
p1702
I1
sS'appropriate'
p1703
I1
sS'troubleshooting'
p1704
I1
sS'france'
p1705
I1
sS'bangladesh'
p1706
I2
sS'kanjitha'
p1707
I2
sS'spam'
p1708
I5
sS'necessasry'
p1709
I1
sS'question'
p1710
I1
sS'vendors'
p1711
I1
sS'size.the'
p1712
I1
sS'forward'
p1713
I15
sS'glow'
p1714
I1
sS'shazly'
p1715
I1
sS'duly'
p1716
I2
sS'registered'
p1717
I3
sS'deductions'
p1718
I1
sS'link'
p1719
I34
sS'line'
p1720
I9
sS'posted'
p1721
I1
sS'info'
p1722
I1
sS'pradeep'
p1723
I1
sS'thivaharan'
p1724
I1
sS'consist'
p1725
I1
sS'redeemed'
p1726
I1
sS'up'
p1727
I18
sS'us'
p1728
I596
sS'benefical'
p1729
I1
sS'customers'
p1730
I21
sS'imran'
p1731
I1
sS'sanjeewa'
p1732
I2
sS'calculated'
p1733
I1
sS'karanna'
p1734
I1
sS'supervisor'
p1735
I1
sS'assisgned'
p1736
I1
sS'derana'
p1737
I1
sS'm'
p1738
I1
sS'thishantha'
p1739
I1
sS'globally'
p1740
I1
sS'irrespective'
p1741
I1
sS'codes'
p1742
I1
sS'amounts'
p1743
I1
sS'ranjith'
p1744
I2
sS'nam'
p1745
I1
sS'towers'
p1746
I1
sS'raini'
p1747
I1
sS'statement'
p1748
I1
sS'nat'
p1749
I5
sS'inconvenince'
p1750
I7
sS'department'
p1751
I2
sS'amalan'
p1752
I2
sS'nice'
p1753
I6
sS'chathumi'
p1754
I1
sS'gogear'
p1755
I1
sS'saajid'
p1756
I1
sS'natgeo'
p1757
I1
sS'regulations'
p1758
I1
sS'generated'
p1759
I1
sS'refrain'
p1760
I1
sS'reservation'
p1761
I1
sS'sudaraka'
p1762
I2
sS'ago'
p1763
I2
sS'favourble'
p1764
I1
sS'e'
p1765
I5
sS'age'
p1766
I1
sS'required'
p1767
I3
sS'wards'
p1768
I1
sS'manusha'
p1769
I1
sS'utilized.hence'
p1770
I1
sS'saminda'
p1771
I1
sS'far'
p1772
I4
sS'international'
p1773
I2
sS'having'
p1774
I5
sS'once'
p1775
I7
sS'code'
p1776
I5
sS'issued'
p1777
I1
sS'existing'
p1778
I2
sS'classic'
p1779
I1
sS'gb'
p1780
I6
sS'go'
p1781
I2
sS'query'
p1782
I3
sS'tweeted'
p1783
I1
sS'issues'
p1784
I13
sS'naleem'
p1785
I1
sS'shiraz'
p1786
I1
sS'reinsert'
p1787
I1
sS'roshan'
p1788
I1
sS'send'
p1789
I23
sS'shiraj'
p1790
I1
sS'blaze'
p1791
I1
sS'meya'
p1792
I8
sS'lilly'
p1793
I1
sS'asistance'
p1794
I1
sS'resources'
p1795
I1
sS'rs.776.22'
p1796
I1
sS'confirmation'
p1797
I3
sS'vihan'
p1798
I1
sS'continues'
p1799
I1
sS'dulith'
p1800
I1
sS'wave'
p1801
I1
sS'wishes'
p1802
I2
sS'putting'
p1803
I1
sS'arrange'
p1804
I1
sS'entire'
p1805
I2
sS'transmission'
p1806
I1
sS'magin'
p1807
I1
sS'joel'
p1808
I4
sS'michael'
p1809
I2
sS'deals'
p1810
I2
sS'packageany'
p1811
I1
sS'havent'
p1812
I1
sS'noted'
p1813
I6
sS'concluded'
p1814
I1
sS'senorita'
p1815
I1
sS'bonus35'
p1816
I1
sS'odi'
p1817
I1
sS'video'
p1818
I9
sS'licenses'
p1819
I1
sS'rs.200'
p1820
I1
sS'rs.25'
p1821
I1
sS'business'
p1822
I1
sS'assisted'
p1823
I15
sS'networks'
p1824
I1
sS'chamara'
p1825
I1
sS'huawei'
p1826
I1
sS'lakshan'
p1827
I3
sS'itll'
p1828
I1
sS'relocate'
p1829
I3
sS'lee'
p1830
I1
sS'regrading'
p1831
I1
sS'punch'
p1832
I1
sS'depositno'
p1833
I1
sS'salinda'
p1834
I1
sS'let'
p1835
I132
sS'badha'
p1836
I1
sS'others'
p1837
I1
sS'consideration'
p1838
I1
sS'extreme'
p1839
I6
sS'settling'
p1840
I1
sS'convert'
p1841
I1
sS'engage'
p1842
I1
sS'chanu'
p1843
I1
sS'awanthi'
p1844
I1
sS'products'
p1845
I2
sS'situations'
p1846
I2
sS'implement'
p1847
I1
sS'sanga'
p1848
I1
sS'guidance'
p1849
I1
sS'apple'
p1850
I4
sS'lords'
p1851
I1
sS'win'
p1852
I11
sS'app'
p1853
I45
sS'manage'
p1854
I1
sS'frame'
p1855
I3
sS'apa'
p1856
I12
sS'moufaz'
p1857
I1
sS'bradman'
p1858
I1
sS'use'
p1859
I25
sS'fee'
p1860
I3
sS'from'
p1861
I48
sS'clarifications'
p1862
I1
sS'next'
p1863
I5
sS'thimira'
p1864
I8
sS'few'
p1865
I19
sS'prabath'
p1866
I1
sS'zim'
p1867
I1
sS'sort'
p1868
I2
sS'tharaka'
p1869
I1
sS'started'
p1870
I1
sS'biller'
p1871
I1
sS'occurred'
p1872
I1
sS'reloads'
p1873
I1
sS'yomu'
p1874
I4
sS'relvant'
p1875
I1
sS'amathiya'
p1876
I1
sS'customer'
p1877
I13
sS'account'
p1878
I8
sS'this'
p1879
I191
sS'ride'
p1880
I1
sS'oh'
p1881
I1
sS'anywhere'
p1882
I1
sS'of'
p1883
I143
sS'control'
p1884
I2
sS'lasitha'
p1885
I2
sS'links'
p1886
I1
sS'process'
p1887
I1
sS'discussed'
p1888
I3
sS'tax'
p1889
I10
sS'promotional'
p1890
I6
sS'high'
p1891
I6
sS'tag'
p1892
I1
sS'tab'
p1893
I1
sS'appvalue'
p1894
I1
sS'haappy'
p1895
I1
sS'six'
p1896
I8
sS'rumman'
p1897
I3
sS'delay'
p1898
I27
sS'located'
p1899
I4
sS'gateway'
p1900
I1
sS'sim'
p1901
I10
sS'highy'
p1902
I1
sS'blocks'
p1903
I3
sS'attend'
p1904
I2
sS'specifications'
p1905
I1
sS'stop'
p1906
I2
sS'roam'
p1907
I1
sS'back.guess'
p1908
I1
sS'tier'
p1909
I5
sS'no.200335045'
p1910
I1
sS'counter'
p1911
I1
sS'dsport'
p1912
I1
sS'bloack'
p1913
I1
sS'allow'
p1914
I15
sS'favourites'
p1915
I1
sS'note10withdialog'
p1916
I1
sS'haka'
p1917
I1
sS'areas'
p1918
I1
sS'mticketing'
p1919
I1
sS'haki'
p1920
I2
sS'meter'
p1921
I1
sS'inconveience'
p1922
I1
sS'including'
p1923
I1
sS'mentioned'
p1924
I32
sS'mitered'
p1925
I1
sS'galaxy'
p1926
I1
sS'volte'
p1927
I2
sS'tweeps'
p1928
I1
sS'winning'
p1929
I1
sS'willing'
p1930
I1
sS'auto'
p1931
I2
sS'practice'
p1932
I1
sS'kisi'
p1933
I1
sS'mention'
p1934
I5
sS'prabhath'
p1935
I1
sS'day'
p1936
I15
sS'refering'
p1937
I4
sS'february'
p1938
I1
sS'nimsidk'
p1939
I1
sS'installment'
p1940
I1
sS'reloading'
p1941
I1
sS'crescat'
p1942
I1
sS'viewing'
p1943
I3
sS'disregard'
p1944
I2
sS'hotline'
p1945
I3
sS'bills'
p1946
I1
sS'experienced'
p1947
I3
sS'prevailing'
p1948
I1
sS'profile'
p1949
I1
sS'activate'
p1950
I22
sS'doing'
p1951
I1
sS'apologize'
p1952
I22
sS'unbelievable'
p1953
I1
sS'related'
p1954
I16
sS'frequency'
p1955
I3
sS'changed'
p1956
I1
sS'our'
p1957
I154
sS'programmes'
p1958
I1
sS'special'
p1959
I1
sS'out'
p1960
I9
sS'category'
p1961
I4
sS'apolohgies'
p1962
I1
sS'announces'
p1963
I1
sS'yupptv'
p1964
I1
sS'nifaadh'
p1965
I1
sS'escalate'
p1966
I30
sS'defualt'
p1967
I1
sS'azraa'
p1968
I1
sS'wisinma'
p1969
I1
sS'ref'
p1970
I8
sS'red'
p1971
I5
sS'disclose'
p1972
I4
sS'await'
p1973
I1
sS'shots'
p1974
I1
sS'danwaa'
p1975
I1
sS'gunfuls'
p1976
I1
sS'witcher'
p1977
I1
sS'offers.no'
p1978
I1
sS'completely'
p1979
I2
sS'ect'
p1980
I1
sS'surely'
p1981
I2
sS'balimata'
p1982
I1
sS'regulatory'
p1983
I1
sS'karamin'
p1984
I1
sS'afdhal'
p1985
I2
sS'g'
p1986
I1
sS'could'
p1987
I229
sS'david'
p1988
I3
sS'seemawa'
p1989
I1
sS'lte'
p1990
I3
sS'ltd'
p1991
I1
sS'hence'
p1992
I12
sS'south'
p1993
I1
sS'third'
p1994
I3
sS'powerful'
p1995
I1
sS'improving'
p1996
I1
sS'muhammad'
p1997
I2
sS'reached'
p1998
I1
sS'quality'
p1999
I5
sS'pawathi'
p2000
I2
sS'endemic'
p2001
I1
sS'pvt'
p2002
I1
sS'sharon'
p2003
I2
sS'management'
p2004
I2
sS'jananath'
p2005
I2
sS'festival'
p2006
I1
sS'assure'
p2007
I2
sS'system'
p2008
I6
sS'priority'
p2009
I6
sS'their'
p2010
I13
sS'huzefa'
p2011
I3
sS'final'
p2012
I1
sS'inapp'
p2013
I1
sS'tilak'
p2014
I2
sS'sachet'
p2015
I2
sS'completed'
p2016
I2
sS'apologise'
p2017
I2
sS'sabry'
p2018
I1
sS'wuwa'
p2019
I1
sS'unsubscribe'
p2020
I1
sS'updating'
p2021
I2
sS'ipad'
p2022
I1
sS'loved'
p2023
I1
sS'akhilasg'
p2024
I1
sS'sambandawada'
p2025
I1
sS'youtube'
p2026
I13
sS'ranil'
p2027
I1
sS'relodge'
p2028
I1
sS'maleth'
p2029
I1
sS'visited'
p2030
I2
sS'providing'
p2031
I3
sS'are'
p2032
I365
sS'partnership'
p2033
I1
sS'yohan'
p2034
I2
sS'unavailability'
p2035
I1
sS'have'
p2036
I239
sS'need'
p2037
I9
sS'ypur'
p2038
I1
sS'blockbuster'
p2039
I1
sS'demonstration'
p2040
I1
sS'idam'
p2041
I1
sS'able'
p2042
I9
sS'parks'
p2043
I1
sS'mix'
p2044
I1
sS'concerns'
p2045
I13
sS'bonanza'
p2046
I1
sS'which'
p2047
I64
sS'divert'
p2048
I1
sS'clash'
p2049
I1
sS'who'
p2050
I4
sS'salli'
p2051
I1
sS'visa'
p2052
I1
sS'connected'
p2053
I4
sS'susai'
p2054
I1
sS'buddika'
p2055
I1
sS'device'
p2056
I83
sS'expired'
p2057
I2
sS'payment'
p2058
I16
sS'manoj'
p2059
I1
sS'volume'
p2060
I1
sS'barista'
p2061
I1
sS'url'
p2062
I1
sS'antimata'
p2063
I1
sS'request'
p2064
I19
sS'face'
p2065
I9
sS'docaayya'
p2066
I1
sS'thilan'
p2067
I2
sS'happned'
p2068
I2
sS'text'
p2069
I1
sS'supported'
p2070
I2
sS'unsolicited'
p2071
I2
sS'vindhika'
p2072
I1
sS'partners'
p2073
I1
sS'concernai'
p2074
I1
sS'based'
p2075
I8
sS'ediriyedi'
p2076
I1
sS'tire'
p2077
I1
sS'earned'
p2078
I1
sS'winner'
p2079
I1
sS'parthiban'
p2080
I1
sS'should'
p2081
I3
sS'jan'
p2082
I3
sS'mahendra'
p2083
I1
sS'bases'
p2084
I1
sS'indeed'
p2085
I1
sS'vidulaj'
p2086
I1
sS'local'
p2087
I1
sS'hope'
p2088
I29
sS'count'
p2089
I2
sS'bear'
p2090
I5
sS'facilitated'
p2091
I1
sS'ones'
p2092
I1
sS'aforementioned'
p2093
I1
sS'richards'
p2094
I1
sS'penetrate'
p2095
I1
sS'years'
p2096
I4
sS'dinuka'
p2097
I2
sS'reqest'
p2098
I3
sS'compalin'
p2099
I1
sS'nisi'
p2100
I1
sS'raised.exact'
p2101
I1
sS'tikiri'
p2102
I1
sS'conditions'
p2103
I1
sS'nisa'
p2104
I1
sS'mohammed'
p2105
I2
sS'taxes'
p2106
I4
sS'calling'
p2107
I2
sS'processed'
p2108
I1
sS'fixed'
p2109
I2
sS'view'
p2110
I3
sS'guessing'
p2111
I1
sS'requirement'
p2112
I2
sS'national'
p2113
I2
sS'showdown'
p2114
I1
sS'sutharman'
p2115
I1
sS'operates'
p2116
I2
sS'computer'
p2117
I2
sS'unlimited'
p2118
I15
sS'karanamen'
p2119
I3
sS'limit2'
p2120
I1
sS'password.step'
p2121
I1
sS'recpective'
p2122
I1
sS'difficulties'
p2123
I2
sS'closed'
p2124
I4
sS'progress'
p2125
I7
sS'youll'
p2126
I4
sS'email'
p2127
I6
sS'shabina'
p2128
I1
sS'danuwath'
p2129
I1
sS'ability'
p2130
I3
sS'hameedia'
p2131
I1
sS'importance'
p2132
I1
sS'deliver'
p2133
I1
sS'amex'
p2134
I1
sS'afridi'
p2135
I1
sS'key'
p2136
I1
sS'approval'
p2137
I1
sS'tweetup'
p2138
I1
sS'restrictions'
p2139
I4
sS'krisanth'
p2140
I2
sS'always'
p2141
I2
sS'invitee'
p2142
I1
sS'postpaid'
p2143
I18
sS'etc'
p2144
I7
sS'comment'
p2145
I2
sS'aa'
p2146
I1
sS'pasindu'
p2147
I5
sS'cm'
p2148
I1
sS'malcolm'
p2149
I4
sS'subscribe'
p2150
I1
sS'munza'
p2151
I2
sS'table'
p2152
I2
sS'allocated'
p2153
I5
sS'hasthika'
p2154
I1
sS'slasscom'
p2155
I1
sS'sara'
p2156
I1
sS'yam'
p2157
I2
sS'chamath'
p2158
I1
sS'rumesh'
p2159
I4
sS'qualify'
p2160
I1
sS'adapting'
p2161
I1
sS'controlled'
p2162
I1
sS'sufficient'
p2163
I1
sS'question.as'
p2164
I1
sS'mail'
p2165
I1
sS'present'
p2166
I1
sS'divisions'
p2167
I1
sS'anush'
p2168
I1
sS'device4g'
p2169
I1
sS'unlike'
p2170
I1
sS'catchup'
p2171
I2
sS'chamal'
p2172
I2
sS'tshirt'
p2173
I1
sS'salman'
p2174
I1
sS'will'
p2175
I210
sS'ultra'
p2176
I2
sS'sandaha'
p2177
I6
sS'ringing'
p2178
I2
sS'almost'
p2179
I1
sS'site'
p2180
I8
sS'vs'
p2181
I4
sS'partner'
p2182
I5
sS'salyaf'
p2183
I1
sS'itzjambole'
p2184
I1
sS'whore'
p2185
I2
sS'lankan'
p2186
I3
sS'cross'
p2187
I1
sS'member'
p2188
I2
sS'utilized.2.if'
p2189
I1
sS'ince'
p2190
I1
sS'party'
p2191
I6
sS'android'
p2192
I3
sS'thaalmayudan'
p2193
I1
sS'privileged'
p2194
I1
sS'hasitha'
p2195
I2
sS'galaxynote10'
p2196
I1
sS'conectivity'
p2197
I1
sS'promo'
p2198
I8
sS'ios'
p2199
I2
sS'effect'
p2200
I2
sS'bala'
p2201
I1
sS'jagatha'
p2202
I1
sS'chathura'
p2203
I2
sS'yoou'
p2204
I1
sS'transaction'
p2205
I1
sS'discounted'
p2206
I1
sS'center'
p2207
I3
sS'karana'
p2208
I1
sS'fully'
p2209
I1
sS'i'
p2210
I6
sS'well'
p2211
I34
sS'karanu'
p2212
I1
sS'command'
p2213
I2
sS'firstly'
p2214
I1
sS'audio'
p2215
I1
sS'yasir'
p2216
I1
sS'latest'
p2217
I10
sS'newest'
p2218
I1
sS'hemitha'
p2219
I2
sS'moments'
p2220
I1
sS'accurate'
p2221
I2
sS'renconfirm'
p2222
I1
sS'recap'
p2223
I1
sS'advertised'
p2224
I1
sS'ujitha'
p2225
I1
sS'web'
p2226
I1
sS'ads'
p2227
I1
sS'wee'
p2228
I2
sS'wed'
p2229
I2
sS'ravindu'
p2230
I3
sS'add'
p2231
I8
sS'book'
p2232
I1
sS'usage'
p2233
I26
sS'match'
p2234
I17
sS'details'
p2235
I277
sS'allblacks'
p2236
I1
sS'ahamed'
p2237
I4
sS'yoy'
p2238
I1
sS'government'
p2239
I3
sS'checking'
p2240
I4
sS'recharging'
p2241
I1
sS'historic'
p2242
I1
sS'know'
p2243
I134
sS'desk'
p2244
I1
sS'imei'
p2245
I1
sS'ruwan'
p2246
I2
sS'password'
p2247
I1
sS'loss'
p2248
I1
sS'atha'
p2249
I1
sS'necessary'
p2250
I4
sS'like'
p2251
I10
sS'athi'
p2252
I2
sS'baleemata'
p2253
I1
sS'payments'
p2254
I4
sS'james'
p2255
I1
sS'simply'
p2256
I2
sS'works'
p2257
I2
sS'page'
p2258
I8
sS'replacement'
p2259
I7
sS'because'
p2260
I1
sS'twitter'
p2261
I3
sS'authority'
p2262
I1
sS'platforms'
p2263
I1
sS'proper'
p2264
I1
sS'home'
p2265
I83
sS'broad'
p2266
I1
sS'avoid'
p2267
I3
sS'ese'
p2268
I1
sS'does'
p2269
I4
sS'sambandayen'
p2270
I1
sS'dekak'
p2271
I1
sS'ishara'
p2272
I1
sS'reaching'
p2273
I3
sS'dcb'
p2274
I2
sS'consuming'
p2275
I1
sS'loans'
p2276
I1
sS'stage'
p2277
I2
sS'about'
p2278
I18
sS'lifestyle'
p2279
I4
sS'package.if'
p2280
I2
sS'getting'
p2281
I7
sS'uodate'
p2282
I1
sS'introduces'
p2283
I2
sS'suhasha'
p2284
I2
sS'daran'
p2285
I1
sS'carrier'
p2286
I1
sS'introduced'
p2287
I2
sS'software'
p2288
I1
sS'own'
p2289
I2
sS'EMO_POS'
p2290
I109
sS'rectify'
p2291
I3
sS'previously'
p2292
I1
sS'nafees'
p2293
I1
sS'hirosh'
p2294
I1
sS'included'
p2295
I1
sS'weather'
p2296
I2
sS'promise'
p2297
I1
sS'fraud'
p2298
I4
sS'utility'
p2299
I2
sS'terminated'
p2300
I1
sS'additional'
p2301
I3
sS'transfer'
p2302
I2
sS'apps'
p2303
I3
sS'awarded'
p2304
I2
sS'ayaz'
p2305
I1
sS'incurred'
p2306
I1
sS'biggest'
p2307
I1
sS'vas'
p2308
I1
sS'jeewansupathapala'
p2309
I1
sS'function'
p2310
I1
sS'cricket'
p2311
I7
sS'ireland'
p2312
I2
sS'shane'
p2313
I3
sS'bus'
p2314
I1
sS'brand'
p2315
I2
sS'nondialog'
p2316
I1
sS'but'
p2317
I23
sS'delivery'
p2318
I1
sS'hi'
p2319
I1346
sS'sadaham'
p2320
I2
sS'automated'
p2321
I1
sS'kalpa'
p2322
I3
sS'bug'
p2323
I1
sS'hd'
p2324
I14
sS'rahul'
p2325
I1
sS'apna'
p2326
I3
sS'made'
p2327
I10
sS'dmd'
p2328
I1
sS'namila'
p2329
I6
sS'whether'
p2330
I32
sS'wish'
p2331
I12
sS'official'
p2332
I2
sS'excitement'
p2333
I1
sS'below'
p2334
I50
sS'cchamount'
p2335
I1
sS'limit'
p2336
I4
sS'tini'
p2337
I1
sS'demonstrate'
p2338
I1
sS'problem'
p2339
I5
sS'minutes'
p2340
I16
sS'display'
p2341
I1
sS'ihatha'
p2342
I1
sS'play'
p2343
I1
sS'pilibandawa'
p2344
I2
sS'universal'
p2345
I1
sS'year'
p2346
I7
sS'myu'
p2347
I1
sS'sembapperuma1'
p2348
I1
sS'periods'
p2349
I3
sS'salmaan'
p2350
I1
sS'complaint'
p2351
I83
sS'compared'
p2352
I1
sS'corporation'
p2353
I1
sS'packs'
p2354
I1
sS'detail'
p2355
I1
sS'other'
p2356
I7
sS'illa'
p2357
I3
sS'mahesh'
p2358
I1
sS'star'
p2359
I16
sS'monday'
p2360
I1
sS'june'
p2361
I2
sS'variation'
p2362
I1
sS'stay'
p2363
I6
sS'chance'
p2364
I8
sS'friends'
p2365
I3
sS'wickramarachchi'
p2366
I1
sS'samsung'
p2367
I3
sS'entertainment'
p2368
I4
sS'dave'
p2369
I1
sS'mauzoom'
p2370
I1
sS'volumes'
p2371
I1
sS'airpod'
p2372
I2
sS'gopikrishna'
p2373
I2
stp2374
Rp2375
.