cnltk.probability
FreqDist
p0
((dp1
S'limited'
p2
I2
sS'fsecure'
p3
I3
sS'isaver.dial'
p4
I1
sS'todays'
p5
I6
sS'latenightthoughts'
p6
I1
sS'saver'
p7
I1
sS'outlet.more'
p8
I3
sS'yellow'
p9
I1
sS'facilities'
p10
I1
sS'prefix'
p11
I1
sS'sleep'
p12
I1
sS'asian'
p13
I3
sS'captain'
p14
I4
sS'consider'
p15
I9
sS'sevens'
p16
I1
sS'whose'
p17
I1
sS'buddy'
p18
I3
sS'paris'
p19
I1
sS'tweet'
p20
I2
sS'harshana'
p21
I2
sS'yomal'
p22
I1
sS'mnews'
p23
I1
sS'aus'
p24
I3
sS'under'
p25
I5
sS'sorry'
p26
I24
sS'worth'
p27
I60
sS'rescue'
p28
I1
sS'battles'
p29
I1
sS'activation'
p30
I3
sS'oceans'
p31
I1
sS'connects'
p32
I1
sS'homes'
p33
I1
sS'asanka'
p34
I1
sS'every'
p35
I28
sS'jack'
p36
I2
sS'seamless'
p37
I5
sS'bringing'
p38
I1
sS'encounter'
p39
I3
sS'tickets'
p40
I62
sS'school'
p41
I7
sS'basics'
p42
I4
sS'magnate'
p43
I1
sS'prize'
p44
I3
sS'skills'
p45
I1
sS'cause'
p46
I2
sS'companies'
p47
I3
sS'upload'
p48
I13
sS'integrated'
p49
I1
sS'lankapuvath'
p50
I3
sS'convenience'
p51
I2
sS'no.1'
p52
I7
sS'enhance'
p53
I2
sS'ups'
p54
I1
sS'clothes'
p55
I1
sS'enjoy'
p56
I27
sS'uncovers'
p57
I1
sS'leaders'
p58
I2
sS'excited'
p59
I2
sS'phones'
p60
I5
sS'direct'
p61
I7
sS'talks'
p62
I2
sS'second'
p63
I17
sS'street'
p64
I4
sS'usbc'
p65
I1
sS'batterys'
p66
I1
sS'follow'
p67
I6
sS'colourful'
p68
I1
sS'specs'
p69
I3
sS'razer'
p70
I1
sS'blue'
p71
I3
sS'prashnayata'
p72
I1
sS'detachables'
p73
I1
sS'brain'
p74
I1
sS'panama'
p75
I1
sS'asia'
p76
I5
sS'above'
p77
I1
sS'conduct'
p78
I2
sS'nubia'
p79
I1
sS'new'
p80
I62
sS'tips'
p81
I6
sS'ever'
p82
I13
sS'sevens.official'
p83
I2
sS'happybirthday'
p84
I4
sS'hero'
p85
I2
sS'festive'
p86
I9
sS'mel'
p87
I7
sS'samaraweera'
p88
I1
sS'never'
p89
I8
sS'meh'
p90
I2
sS'here'
p91
I24
sS'bangkok'
p92
I3
sS'protection'
p93
I6
sS'china'
p94
I6
sS'pursuit'
p95
I1
sS'path'
p96
I5
sS'longweekend'
p97
I1
sS'celebration'
p98
I8
sS'luther'
p99
I1
sS'kids'
p100
I10
sS'vesaksl'
p101
I1
sS'forum'
p102
I1
sS'items'
p103
I2
sS'employees'
p104
I9
sS'changed'
p105
I2
sS'approaches'
p106
I1
sS'golds'
p107
I1
sS'whizzkids'
p108
I1
sS'browsing'
p109
I1
sS'suitable'
p110
I2
sS'tuned.for'
p111
I1
sS'refocus'
p112
I1
sS'samsung'
p113
I49
sS'secure'
p114
I9
sS'campaign'
p115
I2
sS'mobility'
p116
I4
sS'blockbuster'
p117
I1
sS'highly'
p118
I7
sS'insta'
p119
I1
sS'wysd'
p120
I1
sS'apageh'
p121
I1
sS'total'
p122
I1
sS'marketers'
p123
I1
sS'would'
p124
I17
sS'browse'
p125
I1
sS'hospital'
p126
I2
sS'indians'
p127
I1
sS'maradhana'
p128
I1
sS'apac'
p129
I2
sS'cents'
p130
I2
sS'call'
p131
I57
sS'therefore'
p132
I2
sS'preview'
p133
I1
sS'type'
p134
I25
sS'tell'
p135
I12
sS'roshanmahanama'
p136
I1
sS'inquiry'
p137
I5
sS'supporters'
p138
I1
sS'holy'
p139
I4
sS'successful'
p140
I2
sS'oscar'
p141
I2
sS'award'
p142
I8
sS'accessories'
p143
I4
sS'vesak'
p144
I2
sS'phone'
p145
I65
sS'kitmania'
p146
I1
sS'shelters'
p147
I1
sS'mcashmore'
p148
I2
sS'must'
p149
I5
sS'me'
p150
I5
sS'kumar'
p151
I1
sS'join'
p152
I5
sS'language'
p153
I5
sS'mb'
p154
I2
sS'world.here'
p155
I1
sS'work'
p156
I2
sS'movies'
p157
I13
sS'oled'
p158
I1
sS'era'
p159
I4
sS'mechanic'
p160
I3
sS'mr'
p161
I1
sS'my'
p162
I2
sS'nizmy'
p163
I1
sS'zimbabwe'
p164
I3
sS'rs.240'
p165
I3
sS'give'
p166
I7
sS'india'
p167
I4
sS'indicates'
p168
I1
sS'indies'
p169
I1
sS'caused'
p170
I110
sS'want'
p171
I17
sS'premium'
p172
I1
sS'times'
p173
I4
sS'uae'
p174
I2
sS'guarantee'
p175
I1
sS'ceremony'
p176
I3
sS'provincial'
p177
I1
sS'ones'
p178
I36
sS'end'
p179
I3
sS'chanaka'
p180
I1
sS'firaz'
p181
I1
sS'provide'
p182
I27
sS'travel'
p183
I8
sS'song'
p184
I16
sS'feature'
p185
I5
sS'how'
p186
I41
sS'amazing'
p187
I25
sS'answer'
p188
I69
sS'ordinary'
p189
I2
sS'charging'
p190
I2
sS'raffle'
p191
I1
sS'gaming'
p192
I6
sS'beauty'
p193
I1
sS'transforming'
p194
I2
sS'after'
p195
I4
sS'loyalty'
p196
I1
sS'typec'
p197
I1
sS'vihanga'
p198
I1
sS'lap'
p199
I1
sS'expansionmore'
p200
I1
sS'purchase'
p201
I22
sS'effective'
p202
I2
sS'wins'
p203
I4
sS'appreciate'
p204
I8
sS'think'
p205
I22
sS'supermarkets'
p206
I1
sS'life.get'
p207
I2
sS'complexity'
p208
I1
sS'green'
p209
I7
sS'ultimate'
p210
I3
sS'goodbye'
p211
I2
sS'keeps'
p212
I1
sS'movietickets'
p213
I1
sS'order'
p214
I10
sS'updates'
p215
I4
sS'operations'
p216
I1
sS'penenabled'
p217
I1
sS'feedback'
p218
I38
sS'office'
p219
I25
sS'asiri'
p220
I2
sS'telecom'
p221
I5
sS'over'
p222
I18
sS'vary'
p223
I2
sS'murray'
p224
I1
sS'androidp'
p225
I1
sS'london'
p226
I1
sS'innovative'
p227
I3
sS'responsive'
p228
I1
sS'japan'
p229
I4
sS'rewarded'
p230
I1
sS'welcomes'
p231
I2
sS'lastweekend'
p232
I1
sS'fit'
p233
I1
sS'personal'
p234
I2
sS'fix'
p235
I8
sS'socialmedia'
p236
I3
sS'imo'
p237
I1
sS'better'
p238
I6
sS'wales'
p239
I1
sS'hidden'
p240
I1
sS'then'
p241
I9
sS'them'
p242
I10
sS'affected'
p243
I5
sS'tourist'
p244
I2
sS'songwriter'
p245
I1
sS'workout'
p246
I1
sS'grand'
p247
I6
sS'vouchers'
p248
I5
sS'break'
p249
I1
sS'band'
p250
I2
sS'doublelocker'
p251
I1
sS'penetration'
p252
I1
sS'they'
p253
I14
sS'schools'
p254
I4
sS'yourself'
p255
I6
sS'tourism'
p256
I2
sS'silver'
p257
I3
sS'bank'
p258
I10
sS'rumour'
p259
I1
sS'fifaworldcup_bts'
p260
I2
sS'queues'
p261
I2
sS'fifaamnistiapaolo'
p262
I1
sS'eelanesan'
p263
I1
sS'victory'
p264
I5
sS'fitness'
p265
I11
sS'learnmore'
p266
I1
sS'organized'
p267
I1
sS'higher'
p268
I1
sS'side'
p269
I2
sS'bond'
p270
I1
sS'interruption'
p271
I2
sS'financial'
p272
I4
sS'gampaha'
p273
I1
sS'malinga'
p274
I3
sS'diya'
p275
I1
sS'knockout'
p276
I2
sS'series'
p277
I9
sS'solution'
p278
I6
sS'celebrating'
p279
I4
sS'slew'
p280
I1
sS'used'
p281
I3
sS'xmen'
p282
I1
sS'dawn'
p283
I3
sS'ring'
p284
I2
sS'by'
p285
I113
sS'network'
p286
I68
sS'realtime'
p287
I1
sS'open'
p288
I18
sS'psychic'
p289
I2
sS'cameras'
p290
I2
sS'diesel'
p291
I1
sS'content'
p292
I2
sS'matai'
p293
I1
sS'nic'
p294
I8
sS'got'
p295
I12
sS'newly'
p296
I1
sS'millions'
p297
I3
sS'independence'
p298
I2
sS'foundation'
p299
I1
sS'fastestinternet'
p300
I1
sS'data.for'
p301
I3
sS'turning'
p302
I2
sS'telecommunication'
p303
I1
sS'resume'
p304
I27
sS'little'
p305
I13
sS'free'
p306
I59
sS'shamika'
p307
I1
sS'appointments'
p308
I1
sS'techno'
p309
I2
sS'struggle'
p310
I3
sS'mastering'
p311
I1
sS'crowned'
p312
I5
sS'wanted'
p313
I4
sS'ranatunga'
p314
I1
sS'lahiru'
p315
I1
sS'saha'
p316
I1
sS'created'
p317
I1
sS'starts'
p318
I1
sS'atm'
p319
I2
sS'messages'
p320
I6
sS'days'
p321
I34
sS'isuru'
p322
I2
sS'creates'
p323
I3
sS'renew'
p324
I1
sS'bluefendal'
p325
I1
sS's.v.n.p'
p326
I1
sS'onto'
p327
I1
sS'speeds'
p328
I4
sS'user'
p329
I7
sS'highestsmartphonespeed'
p330
I1
sS'already'
p331
I4
sS'features'
p332
I10
sS'wasp'
p333
I1
sS'encouraging'
p334
I1
sS'hearing'
p335
I1
sS'channels'
p336
I7
sS'mcash.dial'
p337
I1
sS'another'
p338
I6
sS'gritandglory'
p339
I5
sS'clarity'
p340
I1
sS'mercury'
p341
I1
sS'freedata'
p342
I3
sS'io18'
p343
I20
sS'service'
p344
I90
sS'operationsplease'
p345
I2
sS'top'
p346
I4
sS'engagement'
p347
I2
sS'girls'
p348
I1
sS'carry'
p349
I1
sS'heights'
p350
I1
sS'tips.to'
p351
I1
sS'kinder'
p352
I1
sS'rates'
p353
I64
sS'listed'
p354
I1
sS'worlds'
p355
I2
sS'hollywood'
p356
I3
sS'kid'
p357
I1
sS'genesis'
p358
I1
sS'listen'
p359
I2
sS'rewards'
p360
I8
sS'tool'
p361
I2
sS'japanese'
p362
I2
sS'activatemore'
p363
I13
sS'rectified'
p364
I1
sS'raigam'
p365
I3
sS'western'
p366
I1
sS'foc.if'
p367
I1
sS'begins'
p368
I1
sS'roles'
p369
I1
sS'citibank'
p370
I1
sS'prasanna'
p371
I1
sS'whatsapps'
p372
I1
sS'rate'
p373
I8
sS'nations'
p374
I3
sS'project'
p375
I2
sS'matter'
p376
I32
sS'obata'
p377
I4
sS'iron'
p378
I5
sS'joy'
p379
I10
sS'enables'
p380
I4
sS'powers'
p381
I2
sS'supermario'
p382
I1
sS'anjali'
p383
I1
sS'mini'
p384
I1
sS'precious'
p385
I4
sS'navigate'
p386
I1
sS'ram'
p387
I1
sS'mind'
p388
I1
sS'abretires'
p389
I1
sS'vs.georgia'
p390
I1
sS'mema'
p391
I1
sS'mediaif'
p392
I1
sS'alive'
p393
I3
sS'person'
p394
I1
sS'convenient'
p395
I2
sS'that'
p396
I80
sS'epl'
p397
I1
sS'eagerly'
p398
I1
sS'contact'
p399
I18
sS'luxury'
p400
I3
sS'forces'
p401
I1
sS'season'
p402
I81
sS'magicmentalist'
p403
I1
sS'indrajith'
p404
I1
sS'topup'
p405
I1
sS'rides'
p406
I1
sS'await'
p407
I1
sS'littlehearts'
p408
I4
sS'shipments'
p409
I1
sS'even'
p410
I4
sS'rangana'
p411
I1
sS'maiden'
p412
I1
sS'shall'
p413
I1
sS'iceland'
p414
I1
sS'd1290'
p415
I1
sS'what'
p416
I38
sS'mario'
p417
I1
sS'involving'
p418
I1
sS'culminates'
p419
I1
sS'letter'
p420
I2
sS'perera'
p421
I4
sS'germans'
p422
I1
sS'zealand'
p423
I3
sS'singer'
p424
I10
sS'africa'
p425
I14
sS'vs.canada'
p426
I1
sS'no.of'
p427
I1
sS'alarm'
p428
I2
sS'camp'
p429
I1
sS'm'
p430
I1
sS'sandun'
p431
I2
sS'musical'
p432
I4
sS'collisioncourse'
p433
I1
sS'points'
p434
I2
sS'tech'
p435
I8
sS'rio2016'
p436
I1
sS'observermobitel'
p437
I6
sS'rupees'
p438
I2
sS'unsubscribe'
p439
I1
sS'consumer'
p440
I1
sS'responded'
p441
I2
sS'came'
p442
I2
sS'reserve'
p443
I32
sS'contacted'
p444
I1
sS'ransomware'
p445
I4
sS'ringtones'
p446
I1
sS'deepika'
p447
I1
sS'techenabled'
p448
I1
sS'solutions'
p449
I16
sS'participate'
p450
I2
sS'earth'
p451
I2
sS'availability'
p452
I1
sS'charity'
p453
I1
sS'busy'
p454
I1
sS'proposed'
p455
I1
sS'menu'
p456
I4
sS'guidance'
p457
I1
sS'unemployment'
p458
I1
sS'happylife'
p459
I1
sS'theme'
p460
I4
sS'allinone'
p461
I1
sS'screening'
p462
I3
sS'rich'
p463
I1
sS'integrate'
p464
I1
sS'announce'
p465
I3
sS'personality'
p466
I1
sS'executive'
p467
I15
sS'do'
p468
I46
sS'dm'
p469
I134
sS'laptop.click'
p470
I1
sS'worldpeaceday'
p471
I1
sS'de'
p472
I16
sS'watch'
p473
I41
sS'preferred'
p474
I3
sS'amazon'
p475
I1
sS'despite'
p476
I1
sS'report'
p477
I1
sS'xtraordinary'
p478
I1
sS'earn'
p479
I1
sS'hasini'
p480
I1
sS'timebased'
p481
I2
sS'public'
p482
I2
sS'reload'
p483
I45
sS'bad'
p484
I2
sS'architecture'
p485
I1
sS'shots'
p486
I2
sS'release'
p487
I3
sS'siduvu'
p488
I1
sS'onegalleface'
p489
I1
sS'secretary'
p490
I1
sS'respond'
p491
I3
sS'disaster'
p492
I1
sS'fair'
p493
I3
sS'specialist'
p494
I1
sS'branding'
p495
I1
sS'testing'
p496
I7
sS'detection'
p497
I1
sS'analytics'
p498
I1
sS'pads'
p499
I1
sS'xperience'
p500
I1
sS'best'
p501
I95
sS'endofweekend'
p502
I1
sS'brazil'
p503
I3
sS'airpods.more'
p504
I2
sS'hotine'
p505
I4
sS'lots'
p506
I1
sS'away'
p507
I5
sS'wikipedia'
p508
I1
sS'artificial'
p509
I1
sS'chanthuranga'
p510
I1
sS'score'
p511
I8
sS'finger'
p512
I1
sS'approach'
p513
I2
sS'fifaworldcup2018'
p514
I1
sS'discovery'
p515
I2
sS'preserve'
p516
I1
sS'wf'
p517
I1
sS'we'
p518
I367
sS'men'
p519
I2
sS'terms'
p520
I1
sS'ookla'
p521
I28
sS'gamers'
p522
I2
sS'handful'
p523
I1
sS'available.ct'
p524
I1
sS'however'
p525
I5
sS'viharamahadevi'
p526
I1
sS'boss'
p527
I1
sS'ramps'
p528
I1
sS'clues'
p529
I1
sS'news'
p530
I9
sS'packages'
p531
I19
sS'beingsrilankan'
p532
I1
sS'improve'
p533
I1
sS'faced'
p534
I1
sS'received'
p535
I2
sS'protect'
p536
I3
sS'accident'
p537
I1
sS'deepavali'
p538
I3
sS'resistant'
p539
I1
sS'country'
p540
I5
sS'solutions.more'
p541
I1
sS'adventures'
p542
I1
sS'against'
p543
I22
sS'participating'
p544
I1
sS'players'
p545
I3
sS'games'
p546
I16
sS'gamer'
p547
I2
sS'receives'
p548
I3
sS'faces'
p549
I2
sS'studio'
p550
I2
sS'asked'
p551
I1
sS'and'
p552
I693
sS'tone'
p553
I4
sS'prepared'
p554
I2
sS'indunith'
p555
I1
sS'periscope'
p556
I1
sS'viruses'
p557
I3
sS'sirasa'
p558
I2
sS'combankmobitel'
p559
I1
sS'telecommunications'
p560
I3
sS'panel'
p561
I3
sS'speak'
p562
I1
sS'conference'
p563
I6
sS'billing'
p564
I6
sS'basis'
p565
I2
sS'chrome'
p566
I2
sS'smash'
p567
I2
sS'three'
p568
I7
sS'been'
p569
I18
sS'much'
p570
I14
sS'lanka.more'
p571
I2
sS'interest'
p572
I1
sS'expected'
p573
I2
sS'fifa18worldcup'
p574
I2
sS'kirishanth3'
p575
I1
sS'website'
p576
I2
sS'publishes'
p577
I1
sS'life'
p578
I28
sS'families'
p579
I4
sS'sore'
p580
I1
sS'prosperous'
p581
I1
sS'kumara'
p582
I1
sS'smartwatch'
p583
I1
sS'lift'
p584
I1
sS'child'
p585
I23
sS'catch'
p586
I2
sS'comfortable'
p587
I2
sS'lionel'
p588
I3
sS'applied'
p589
I1
sS'save'
p590
I7
sS'publicly'
p591
I1
sS'slt'
p592
I27
sS'launches'
p593
I9
sS'air'
p594
I8
sS'near'
p595
I1
sS'teachers'
p596
I1
sS'aid'
p597
I1
sS'mobitel.for'
p598
I2
sS'balance'
p599
I1
sS'wecarealways'
p600
I10
sS'launched'
p601
I2
sS'momentofcare'
p602
I2
sS'opt'
p603
I1
sS'stop'
p604
I2
sS'worldcup'
p605
I29
sS'sticker'
p606
I1
sS'it'
p607
I115
sS'defeated'
p608
I1
sS'ii'
p609
I1
sS'player'
p610
I5
sS'kingsbury'
p611
I1
sS'io'
p612
I2
sS'in'
p613
I395
sS'victims'
p614
I4
sS'mouse'
p615
I1
sS'disappear'
p616
I1
sS'if'
p617
I82
sS'memorial'
p618
I1
sS'io17sl'
p619
I5
sS'nbiot'
p620
I3
sS'credit'
p621
I4
sS'things'
p622
I7
sS'make'
p623
I15
sS'airport'
p624
I2
sS'department.we'
p625
I1
sS'plates'
p626
I1
sS'several'
p627
I3
sS'aluthkade'
p628
I1
sS'showing'
p629
I3
sS'european'
p630
I2
sS'wheel'
p631
I1
sS'independent'
p632
I1
sS'pubg'
p633
I1
sS'obage'
p634
I2
sS'pick'
p635
I2
sS'speedtest'
p636
I4
sS'workforce'
p637
I5
sS'hand'
p638
I4
sS'encrypts'
p639
I1
sS'portal'
p640
I3
sS'thinkgeek'
p641
I1
sS'rugbywithmobitel'
p642
I5
sS'opportunity'
p643
I5
sS'tune'
p644
I4
sS'cycle'
p645
I10
sS'mentioning'
p646
I1
sS'changes'
p647
I2
sS'mbillionth'
p648
I1
sS'youre'
p649
I3
sS'suffering'
p650
I1
sS'ocean'
p651
I2
sS'efficient'
p652
I3
sS'savings'
p653
I10
sS'coldness'
p654
I1
sS'mamma'
p655
I5
sS'greatest'
p656
I2
sS'mathews'
p657
I3
sS'mother'
p658
I1
sS'hearts'
p659
I1
sS'the'
p660
I1493
sS'oneplus'
p661
I1
sS'corporate'
p662
I5
sS'yours'
p663
I1
sS'dads'
p664
I1
sS'left'
p665
I3
sS'unified'
p666
I1
sS'just'
p667
I58
sS'planetesimals'
p668
I1
sS'photo'
p669
I25
sS'laptop'
p670
I9
sS'thanks'
p671
I25
sS'human'
p672
I1
sS'facts'
p673
I2
sS'yes'
p674
I28
sS'yet'
p675
I14
sS'mohamed'
p676
I3
sS'adding'
p677
I2
sS'spectacles'
p678
I2
sS'furry'
p679
I1
sS'ease'
p680
I6
sS'had'
p681
I2
sS'staypositive'
p682
I2
sS'countrys'
p683
I1
sS'spread'
p684
I5
sS'board'
p685
I2
sS'easy'
p686
I7
sS'technological'
p687
I1
sS's10e'
p688
I2
sS'whatsapp'
p689
I2
sS'has'
p690
I38
sS'gave'
p691
I1
sS'actresses'
p692
I2
sS'reuse'
p693
I1
sS'elders'
p694
I2
sS'lkr100'
p695
I1
sS'possible'
p696
I7
sS'tarzan'
p697
I2
sS'unique'
p698
I2
sS'advanced'
p699
I9
sS'apart'
p700
I1
sS'desire'
p701
I1
sS'gift'
p702
I14
sS'youthskills'
p703
I1
sS'kusal'
p704
I2
sS'xbox'
p705
I1
sS'informative'
p706
I1
sS'steps'
p707
I2
sS'night'
p708
I3
sS'renowned'
p709
I3
sS'maldivesdial'
p710
I2
sS'security'
p711
I10
sS'darshani'
p712
I1
sS'right'
p713
I7
sS'old'
p714
I10
sS'people'
p715
I4
sS'toyota'
p716
I1
sS'successfully'
p717
I4
sS'crown'
p718
I1
sS'zoom'
p719
I1
sS'wwe'
p720
I2
sS'malaysia'
p721
I4
sS'sure'
p722
I3
sS'hassle'
p723
I2
sS'poolside'
p724
I1
sS'dear'
p725
I18
sS'multiple'
p726
I2
sS'guess'
p727
I20
sS'doorstep'
p728
I8
sS'theatrical'
p729
I2
sS'shamil'
p730
I1
sS'earthsized'
p731
I1
sS'combat'
p732
I1
sS'for'
p733
I819
sS'remind'
p734
I1
sS'icc'
p735
I10
sS'phenomenal'
p736
I2
sS'mobitelmore'
p737
I7
sS'comments'
p738
I15
sS'malika'
p739
I1
sS'icy'
p740
I1
sS'asking'
p741
I1
sS'foc'
p742
I1
sS'dengue'
p743
I4
sS'clifford'
p744
I1
sS'christmas'
p745
I29
sS'ict'
p746
I3
sS'peek'
p747
I1
sS'thommy'
p748
I2
sS'who'
p749
I25
sS'pls'
p750
I2
sS'xander'
p751
I1
sS'marketing'
p752
I11
sS'mobilelife'
p753
I1
sS'predicting'
p754
I3
sS'constructive'
p755
I2
sS'doesnt'
p756
I1
sS'discount'
p757
I7
sS'nomophobia'
p758
I2
sS'plc'
p759
I4
sS'amaradeva'
p760
I1
sS'tetris'
p761
I1
sS'post'
p762
I5
sS'super'
p763
I21
sS'trophy'
p764
I11
sS'lives.happy'
p765
I1
sS'newspapers'
p766
I1
sS'months'
p767
I6
sS'o'
p768
I1
sS'oba'
p769
I1
sS'nuwankulasekara'
p770
I1
sS'visa'
p771
I3
sS'ensure'
p772
I1
sS'shigetaka'
p773
I1
sS'connected'
p774
I21
sS'efforts'
p775
I1
sS'sept'
p776
I2
sS'automatically'
p777
I4
sS'printed'
p778
I1
sS'nerve'
p779
I1
sS'whats'
p780
I3
sS'mquotes'
p781
I1
sS'bata'
p782
I6
sS'mantle'
p783
I1
sS'bundles'
p784
I9
sS'selfie'
p785
I2
sS'delighted'
p786
I1
sS'mobitelsponsored'
p787
I1
sS'down'
p788
I3
sS'entrepreneur'
p789
I1
sS'lankamore'
p790
I2
sS'magazines'
p791
I1
sS'wrap'
p792
I2
sS'nishadhi'
p793
I1
sS'east'
p794
I4
sS'support'
p795
I5
sS'constantly'
p796
I1
sS'transform'
p797
I2
sS'nova'
p798
I1
sS'fight'
p799
I3
sS'stuck'
p800
I2
sS'joseph'
p801
I1
sS'way'
p802
I17
sS'music'
p803
I8
sS'innovators'
p804
I1
sS'was'
p805
I15
sS'war'
p806
I1
sS'launching'
p807
I1
sS'happy'
p808
I12
sS'lowest'
p809
I19
sS'head'
p810
I7
sS'battery'
p811
I4
sS'card.giving'
p812
I1
sS'offering'
p813
I5
sS'offer'
p814
I33
sS'becoming'
p815
I2
sS'fireworks'
p816
I1
sS'landing'
p817
I1
sS'abdretires'
p818
I1
sS'wireless'
p819
I2
sS'echannellingmore'
p820
I3
sS'talents'
p821
I1
sS'hear'
p822
I9
sS'peradeniya'
p823
I1
sS'leomessi'
p824
I1
sS'safeguard'
p825
I3
sS'true'
p826
I8
sS'congratulations'
p827
I9
sS'responding'
p828
I11
sS'humbled'
p829
I1
sS'friday'
p830
I3
sS'inquir'
p831
I1
sS'multifactor'
p832
I1
sS'attached'
p833
I13
sS'maximum'
p834
I3
sS'devices'
p835
I8
sS'until'
p836
I2
sS'crystal'
p837
I1
sS'simplifying'
p838
I1
sS'mticketing365'
p839
I1
sS'usher'
p840
I1
sS'zodiac'
p841
I1
sS'pricing'
p842
I2
sS'bhavitha'
p843
I1
sS'proud'
p844
I8
sS'hasslefree'
p845
I2
sS'classic'
p846
I2
sS'tesla'
p847
I1
sS'request'
p848
I6
sS'tournament'
p849
I1
sS'proven'
p850
I1
sS'shines'
p851
I1
sS'ericsson'
p852
I1
sS'check'
p853
I62
sS'posting'
p854
I3
sS'dying'
p855
I1
sS'no'
p856
I26
sS'whereas'
p857
I2
sS'stake'
p858
I2
sS'excel'
p859
I1
sS'actor'
p860
I5
sS'reality'
p861
I6
sS'flood'
p862
I1
sS'interested'
p863
I9
sS'role'
p864
I3
sS'holding'
p865
I1
sS'brings'
p866
I4
sS'test'
p867
I3
sS'developers'
p868
I1
sS'company'
p869
I2
sS'scored'
p870
I3
sS'picture'
p871
I4
sS'brothers'
p872
I1
sS'phoenix'
p873
I1
sS'kva'
p874
I1
sS'models'
p875
I1
sS'dies'
p876
I1
sS'welcome'
p877
I3
sS'outreach'
p878
I1
sS'maduni'
p879
I1
sS'line.book'
p880
I1
sS'journey'
p881
I3
sS'reign'
p882
I1
sS'climate'
p883
I2
sS'rolling'
p884
I1
sS'weekend'
p885
I11
sS'gets'
p886
I2
sS'died'
p887
I1
sS'thivakaran'
p888
I1
sS'shootout'
p889
I1
sS'faster'
p890
I5
sS'lot'
p891
I2
sS'together'
p892
I11
sS'broadband'
p893
I5
sS'accolade'
p894
I1
sS'vietnam'
p895
I1
sS'mobiledata'
p896
I1
sS'time'
p897
I66
sS'banners'
p898
I5
sS'chanushi'
p899
I2
sS'songs'
p900
I10
sS'managed'
p901
I1
sS'ankaya'
p902
I1
sS'dance'
p903
I3
sS'clairvoyants'
p904
I5
sS'global'
p905
I10
sS'activated'
p906
I6
sS'branches'
p907
I7
sS'rog'
p908
I1
sS'manager'
p909
I3
sS'mile'
p910
I1
sS'ice'
p911
I2
sS'grateful'
p912
I1
sS'battle'
p913
I8
sS'lankanborn'
p914
I1
sS'recharge'
p915
I3
sS'thursdaythoughts'
p916
I1
sS'transiting'
p917
I1
sS'suicide'
p918
I2
sS'everything'
p919
I10
sS'flash'
p920
I1
sS'netball'
p921
I2
sS'suspending'
p922
I1
sS'redmi'
p923
I5
sS'environment'
p924
I5
sS'charge'
p925
I3
sS'promoting'
p926
I2
sS'phoners'
p927
I7
sS'marks'
p928
I2
sS'addon'
p929
I1
sS'ride'
p930
I1
sS'shoot'
p931
I1
sS'downloading'
p932
I1
sS'prepaid'
p933
I95
sS'entitiles'
p934
I1
sS'choice'
p935
I5
sS'entries'
p936
I8
sS'word'
p937
I1
sS'exact'
p938
I1
sS'minute'
p939
I21
sS'cool'
p940
I9
sS'morningmotivation'
p941
I1
sS'isaver'
p942
I13
sS'india.to'
p943
I1
sS'level'
p944
I2
sS'did'
p945
I1
sS'turns'
p946
I10
sS'crowdsources'
p947
I1
sS'persevering'
p948
I1
sS'hawaii'
p949
I1
sS'item'
p950
I2
sS'settle'
p951
I2
sS'datamart'
p952
I8
sS'way.the'
p953
I1
sS'havies'
p954
I1
sS'team'
p955
I13
sS'quick'
p956
I2
sS'winners.unfortunately'
p957
I1
sS'round'
p958
I9
sS'added'
p959
I12
sS'prevent'
p960
I3
sS'olympic'
p961
I3
sS'blade'
p962
I1
sS'says'
p963
I3
sS'rents'
p964
I1
sS'requirements'
p965
I3
sS'discover'
p966
I3
sS'cyber'
p967
I2
sS'sign'
p968
I3
sS'ashan'
p969
I5
sS'voucher'
p970
I1
sS'stands'
p971
I3
sS'matara'
p972
I4
sS'heres'
p973
I5
sS'assistance'
p974
I3
sS'mw'
p975
I4
sS'ashansilva'
p976
I1
sS'pleased'
p977
I4
sS'current'
p978
I10
sS'health'
p979
I9
sS'ancient'
p980
I1
sS'labadenna'
p981
I1
sS'fifa18'
p982
I5
sS'international'
p983
I6
sS'falling'
p984
I1
sS'pilithurak'
p985
I1
sS'celebrates'
p986
I4
sS'filled'
p987
I8
sS'mobile.more'
p988
I5
sS'supporting'
p989
I2
sS's10'
p990
I4
sS'install'
p991
I3
sS'v'
p992
I1
sS'mudal'
p993
I1
sS'inspiring'
p994
I2
sS'understanding'
p995
I1
sS'water'
p996
I3
sS'downloaded'
p997
I1
sS'slow'
p998
I2
sS'groups'
p999
I1
sS'address'
p1000
I4
sS'along'
p1001
I30
sS'roaring'
p1002
I1
sS'teaches'
p1003
I1
sS'change'
p1004
I8
sS'wait'
p1005
I1
sS'box'
p1006
I4
sS'boy'
p1007
I3
sS'pointsmore'
p1008
I3
sS'wishourlions'
p1009
I2
sS'brilliant'
p1010
I1
sS'rahula'
p1011
I1
sS'pramadawunata'
p1012
I1
sS'eka'
p1013
I3
sS'sangakkara'
p1014
I1
sS'seekkuge'
p1015
I1
sS'cinnamon'
p1016
I21
sS't20'
p1017
I7
sS'conveniently'
p1018
I12
sS'history'
p1019
I6
sS'navigation'
p1020
I1
sS'britishborn'
p1021
I1
sS'cache'
p1022
I1
sS'love'
p1023
I29
sS'fortune.happy'
p1024
I1
sS'prefer'
p1025
I4
sS'gamecube'
p1026
I1
sS'ipl'
p1027
I1
sS'nelsonmandela'
p1028
I1
sS'sincerely'
p1029
I108
sS'flexibility'
p1030
I1
sS'memorable'
p1031
I3
sS'vs.samoa'
p1032
I1
sS'market'
p1033
I1
sS'angelo'
p1034
I3
sS'mobitels'
p1035
I22
sS'wealth'
p1036
I2
sS'working'
p1037
I6
sS'prove'
p1038
I1
sS'positive'
p1039
I2
sS'visit'
p1040
I121
sS'sports'
p1041
I2
sS'live'
p1042
I53
sS'bombings'
p1043
I4
sS'iphone'
p1044
I48
sS'peru'
p1045
I1
sS'memory'
p1046
I1
sS'msg'
p1047
I2
sS'selects'
p1048
I1
sS'slideout'
p1049
I1
sS'today'
p1050
I61
sS'executiveif'
p1051
I1
sS'sharing'
p1052
I3
sS'hadawathinmasrilankikai'
p1053
I6
sS'jayasuriya'
p1054
I1
sS'club'
p1055
I5
sS'worldenvironmentday'
p1056
I2
sS'printers'
p1057
I2
sS'refrain'
p1058
I1
sS'employee'
p1059
I6
sS'everywhere'
p1060
I3
sS'apahasuthawayata'
p1061
I1
sS'industrys'
p1062
I1
sS'behalf'
p1063
I1
sS'insights'
p1064
I1
sS'lanka.order'
p1065
I1
sS'graphic'
p1066
I2
sS'car'
p1067
I6
sS'instagramers'
p1068
I1
sS'soul'
p1069
I1
sS'jude'
p1070
I1
sS'cat'
p1071
I1
sS'flagship'
p1072
I2
sS'upahara'
p1073
I21
sS'printing'
p1074
I3
sS'can'
p1075
I178
sS'following'
p1076
I10
sS'making'
p1077
I3
sS'laughter'
p1078
I1
sS'unconditional'
p1079
I2
sS'heart'
p1080
I3
sS'valentines'
p1081
I5
sS'figure'
p1082
I1
sS'uruguay'
p1083
I2
sS'predict'
p1084
I27
sS'december'
p1085
I1
sS'awesome'
p1086
I1
sS'enablement'
p1087
I1
sS'agent'
p1088
I3
sS'this.please'
p1089
I2
sS'council'
p1090
I15
sS'occur'
p1091
I2
sS'deails'
p1092
I1
sS'joaquin'
p1093
I1
sS'ihshan'
p1094
I1
sS's9'
p1095
I3
sS's8'
p1096
I2
sS'monitoring'
p1097
I7
sS'discussion'
p1098
I5
sS'bonds'
p1099
I2
sS's7'
p1100
I5
sS'dinner'
p1101
I3
sS'vathsangan4'
p1102
I1
sS'write'
p1103
I4
sS'till'
p1104
I5
sS'sunday'
p1105
I5
sS'fourth'
p1106
I1
sS'plus'
p1107
I1
sS'mquiz'
p1108
I22
sS'nonstop'
p1109
I1
sS'wuna'
p1110
I1
sS'map'
p1111
I1
sS'staying'
p1112
I3
sS'mar'
p1113
I1
sS'information'
p1114
I45
sS'may'
p1115
I17
sS'max'
p1116
I17
sS'echannel'
p1117
I3
sS'applications'
p1118
I2
sS'birthday'
p1119
I23
sS'snr'
p1120
I1
sS'designed'
p1121
I2
sS'date'
p1122
I6
sS'such'
p1123
I6
sS'october.visit'
p1124
I1
sS'data'
p1125
I215
sS'grow'
p1126
I3
sS'natural'
p1127
I2
sS'conscious'
p1128
I1
sS'moroccans'
p1129
I1
sS'ltd'
p1130
I1
sS'introducing'
p1131
I2
sS'tiktok'
p1132
I1
sS'switch'
p1133
I5
sS'wasanthi'
p1134
I1
sS'truck'
p1135
I2
sS'deposit'
p1136
I10
sS'sm'
p1137
I1
sS'unleash'
p1138
I1
sS'wijesekara'
p1139
I1
sS'pollution'
p1140
I3
sS'talk'
p1141
I11
sS'refund'
p1142
I2
sS'exclusive'
p1143
I5
sS'shoes'
p1144
I6
sS'deactivated'
p1145
I2
sS'wishing'
p1146
I3
sS'spreadsheets'
p1147
I2
sS'canary'
p1148
I1
sS'years'
p1149
I14
sS'hiring'
p1150
I1
sS'terrace'
p1151
I1
sS'managers'
p1152
I1
sS'still'
p1153
I4
sS'melsta'
p1154
I1
sS'blocked'
p1155
I5
sS'foldable'
p1156
I2
sS'group'
p1157
I5
sS'monitor'
p1158
I5
sS'maps'
p1159
I12
sS'duplex'
p1160
I1
sS'interesting'
p1161
I7
sS'facility'
p1162
I2
sS'troubles'
p1163
I1
sS'platform'
p1164
I3
sS'offers'
p1165
I44
sS'revolutionizes'
p1166
I2
sS'EMO_NEG'
p1167
I6
sS'policy'
p1168
I3
sS'ashanthi'
p1169
I10
sS'main'
p1170
I2
sS'into'
p1171
I31
sS'instantly'
p1172
I5
sS'within'
p1173
I3
sS'finance'
p1174
I8
sS'declutter'
p1175
I1
sS'matches'
p1176
I10
sS'conversations'
p1177
I1
sS'sachee'
p1178
I1
sS'nation'
p1179
I16
sS'benzmore'
p1180
I1
sS't.m'
p1181
I2
sS'adrenaline'
p1182
I1
sS'awaited'
p1183
I5
sS'subscribers'
p1184
I2
sS'half'
p1185
I1
sS'not'
p1186
I40
sS'nov'
p1187
I1
sS'now'
p1188
I131
sS'thilina'
p1189
I1
sS'wont'
p1190
I2
sS'gearing'
p1191
I1
sS'name'
p1192
I1
sS'january'
p1193
I2
sS'drop'
p1194
I1
sS'possibilities'
p1195
I1
sS'realistic'
p1196
I1
sS'microled'
p1197
I1
sS'kamila'
p1198
I1
sS'bowling'
p1199
I1
sS'showcasing'
p1200
I2
sS'quarter'
p1201
I2
sS'apply.'
p1202
I1
sS'kane'
p1203
I2
sS'challenges'
p1204
I2
sS'sponsor'
p1205
I4
sS'year'
p1206
I20
sS'ft'
p1207
I13
sS'girl'
p1208
I2
sS'teams'
p1209
I7
sS'relive'
p1210
I2
sS'canada'
p1211
I3
sS'living'
p1212
I1
sS'eidmubarak'
p1213
I2
sS'guessthemovie'
p1214
I1
sS'space'
p1215
I1
sS'tharuka'
p1216
I1
sS'collaborates'
p1217
I1
sS'looking'
p1218
I8
sS'reforestation'
p1219
I3
sS'pongal2019'
p1220
I2
sS'dominate'
p1221
I1
sS'correct'
p1222
I9
sS'assurance'
p1223
I3
sS'shows'
p1224
I4
sS'attended'
p1225
I1
sS'mercantile'
p1226
I5
sS'cars'
p1227
I5
sS'million'
p1228
I2
sS'resourcesforward'
p1229
I1
sS'sltmobitel'
p1230
I1
sS'mercedes'
p1231
I6
sS'oasis'
p1232
I1
sS'unwanted'
p1233
I1
sS'lotteries'
p1234
I2
sS'upon'
p1235
I5
sS'mobitelq2'
p1236
I1
sS'card'
p1237
I9
sS'care'
p1238
I28
sS'advance'
p1239
I5
sS'pune'
p1240
I1
sS'mobitelq3'
p1241
I1
sS'day1st'
p1242
I1
sS'carnival'
p1243
I3
sS'connectivity'
p1244
I9
sS'transition'
p1245
I1
sS'infotel'
p1246
I1
sS'pandemic'
p1247
I1
sS'british'
p1248
I8
sS'thing'
p1249
I1
sS'place'
p1250
I3
sS'futuristic'
p1251
I1
sS'router'
p1252
I20
sS'promotion'
p1253
I7
sS'childhood'
p1254
I20
sS'first'
p1255
I59
sS'exotic'
p1256
I4
sS'initial'
p1257
I1
sS'saving'
p1258
I3
sS'xl'
p1259
I1
sS'revenue'
p1260
I1
sS'kodituwakku'
p1261
I1
sS'one'
p1262
I32
sS'xx'
p1263
I1
sS'fast'
p1264
I7
sS'directly'
p1265
I1
sS'xr'
p1266
I6
sS'xs'
p1267
I14
sS'message'
p1268
I26
sS'fiji'
p1269
I1
sS'tomorrow'
p1270
I5
sS'engineer'
p1271
I1
sS'gertrude'
p1272
I1
sS'given'
p1273
I4
sS'district'
p1274
I1
sS'happynewyear2019'
p1275
I1
sS'parami'
p1276
I1
sS'plastic'
p1277
I1
sS'anyone'
p1278
I1
sS'participated'
p1279
I1
sS'filter'
p1280
I1
sS'friend'
p1281
I5
sS'gives'
p1282
I10
sS'mercantilerugbysevens'
p1283
I2
sS'eyes'
p1284
I2
sS'exoskeleton'
p1285
I1
sS'hub'
p1286
I2
sS'cope'
p1287
I1
sS'brains'
p1288
I1
sS'continuous'
p1289
I1
sS'technnovation'
p1290
I1
sS'broadcast'
p1291
I2
sS'nuwan'
p1292
I3
sS'thai'
p1293
I3
sS'copy'
p1294
I2
sS'than'
p1295
I18
sS'population'
p1296
I1
sS'wide'
p1297
I7
sS'unfortunately'
p1298
I2
sS'require'
p1299
I2
sS'automakers'
p1300
I1
sS'showcase'
p1301
I1
sS'protected'
p1302
I3
sS'apples'
p1303
I1
sS'venture'
p1304
I1
sS'denguefreechild'
p1305
I1
sS'cards'
p1306
I4
sS'college'
p1307
I5
sS'russia'
p1308
I5
sS'proactive'
p1309
I1
sS'browser'
p1310
I2
sS'pre'
p1311
I10
sS'sam'
p1312
I1
sS'pro'
p1313
I12
sS'premier'
p1314
I4
sS'turned'
p1315
I1
sS'voices'
p1316
I1
sS'say'
p1317
I7
sS'comedian'
p1318
I1
sS'slaf'
p1319
I1
sS'pirabakaran'
p1320
I1
sS'any'
p1321
I89
sS'batting'
p1322
I1
sS'prosperity'
p1323
I3
sS'anuradhapura'
p1324
I1
sS'note'
p1325
I13
sS'other'
p1326
I27
sS'squad'
p1327
I1
sS'take'
p1328
I19
sS'online'
p1329
I20
sS'performance'
p1330
I9
sS'gmail'
p1331
I2
sS'channel'
p1332
I21
sS'begin'
p1333
I2
sS'differences'
p1334
I1
sS'pain'
p1335
I1
sS'theatre'
p1336
I1
sS'track'
p1337
I5
sS'price'
p1338
I1
sS'enter'
p1339
I4
sS'paid'
p1340
I12
sS'donation'
p1341
I2
sS'nonsmartphone'
p1342
I3
sS'pair'
p1343
I2
sS'device'
p1344
I21
sS'ayubowan'
p1345
I4
sS'pages'
p1346
I3
sS'queens'
p1347
I1
sS'aia'
p1348
I1
sS'considered'
p1349
I1
sS'later'
p1350
I1
sS'steady'
p1351
I1
sS'heat'
p1352
I1
sS'mrs'
p1353
I1
sS'trafficking'
p1354
I1
sS'professional'
p1355
I1
sS'senior'
p1356
I3
sS'danne'
p1357
I3
sS'quantity'
p1358
I1
sS'shop'
p1359
I1
sS'fifa'
p1360
I3
sS'walking'
p1361
I2
sS'drastically'
p1362
I1
sS'show'
p1363
I17
sS'german'
p1364
I2
sS'able'
p1365
I6
sS'colombo'
p1366
I16
sS'customizability'
p1367
I1
sS'fifth'
p1368
I1
sS'ground'
p1369
I5
sS'upgrade'
p1370
I2
sS'mubarak'
p1371
I4
sS'title'
p1372
I1
sS'behind'
p1373
I2
sS'testdrive'
p1374
I1
sS'denagannata'
p1375
I1
sS'only'
p1376
I33
sS'going'
p1377
I5
sS'black'
p1378
I2
sS'iphone11pro'
p1379
I1
sS'info'
p1380
I291
sS'fraser'
p1381
I1
sS'get'
p1382
I118
sS'assistant'
p1383
I6
sS'witness'
p1384
I2
sS'truly'
p1385
I8
sS'tailor'
p1386
I1
sS'outlet'
p1387
I8
sS'awaiting'
p1388
I1
sS'celebrate'
p1389
I2
sS'funquiz'
p1390
I3
sS'prime'
p1391
I1
sS'randhir'
p1392
I10
sS'regarding'
p1393
I1
sS'data.fup'
p1394
I1
sS'trappist'
p1395
I1
sS'settings'
p1396
I1
sS'floods'
p1397
I1
sS'malaysian'
p1398
I2
sS'topnotch'
p1399
I2
sS'morning'
p1400
I6
sS'jokes'
p1401
I1
sS'dayaratne'
p1402
I1
sS'mlearning.hotlines'
p1403
I1
sS'funriddle'
p1404
I9
sS'baked'
p1405
I1
sS'where'
p1406
I1
sS'worrying'
p1407
I3
sS'vision'
p1408
I2
sS'reveals'
p1409
I1
sS'declared'
p1410
I1
sS'caller'
p1411
I2
sS'concert'
p1412
I2
sS'espn'
p1413
I12
sS'seas'
p1414
I1
sS'j7'
p1415
I3
sS'emote'
p1416
I1
sS'connections'
p1417
I6
sS'asleep'
p1418
I1
sS'apologies'
p1419
I3
sS'mobitel'
p1420
I579
sS'sport'
p1421
I4
sS'cliptype'
p1422
I1
sS'wonder'
p1423
I2
sS'planet'
p1424
I2
sS'mendis'
p1425
I2
sS'todaymore'
p1426
I6
sS'registering'
p1427
I2
sS'ways'
p1428
I7
sS'review'
p1429
I1
sS'thuru'
p1430
I6
sS'outside'
p1431
I1
sS'between'
p1432
I7
sS'ui'
p1433
I1
sS'teens'
p1434
I2
sS'before'
p1435
I31
sS'across'
p1436
I13
sS'affordable'
p1437
I5
sS'happythaipongal'
p1438
I2
sS'infrastructure'
p1439
I1
sS'august'
p1440
I7
sS'quadro'
p1441
I1
sS'deliver'
p1442
I2
sS'screen'
p1443
I4
sS'moana'
p1444
I1
sS'jr'
p1445
I1
sS'wednesday'
p1446
I1
sS'mihiranga'
p1447
I2
sS'awards'
p1448
I28
sS'all.sign'
p1449
I1
sS'hurts'
p1450
I1
sS'tub'
p1451
I1
sS'come'
p1452
I18
sS'coupons'
p1453
I1
sS'superstar'
p1454
I1
sS'many'
p1455
I20
sS'megapixels'
p1456
I1
sS'according'
p1457
I2
sS'cardsfor'
p1458
I1
sS'called'
p1459
I3
sS'visthara'
p1460
I2
sS's'
p1461
I2
sS'stateoftheart'
p1462
I5
sS'ousl'
p1463
I1
sS'holders'
p1464
I3
sS'adaption'
p1465
I1
sS'comes'
p1466
I9
sS'kogul'
p1467
I1
sS'among'
p1468
I3
sS't20i'
p1469
I4
sS'madness'
p1470
I1
sS'merry'
p1471
I5
sS'stream'
p1472
I1
sS'overview'
p1473
I1
sS'period'
p1474
I3
sS'pop'
p1475
I1
sS'innovations'
p1476
I3
sS'confirmed'
p1477
I1
sS'learning'
p1478
I1
sS'pongal'
p1479
I2
sS'spark'
p1480
I1
sS'adults'
p1481
I2
sS'caring'
p1482
I5
sS'esports'
p1483
I4
sS'combines'
p1484
I1
sS'cares'
p1485
I3
sS'stretch'
p1486
I1
sS'west'
p1487
I1
sS'informed'
p1488
I8
sS'vacation'
p1489
I1
sS'tipthursday'
p1490
I1
sS'mart'
p1491
I9
sS'workshop'
p1492
I2
sS'combined'
p1493
I1
sS'peaceful'
p1494
I1
sS'featuring'
p1495
I4
sS'schoolboy'
p1496
I1
sS'followus'
p1497
I1
sS'shopping'
p1498
I16
sS'offered'
p1499
I2
sS'laptops'
p1500
I2
sS'photos'
p1501
I1
sS'commenting'
p1502
I5
sS'wake'
p1503
I2
sS'minister'
p1504
I1
sS'rugby'
p1505
I38
sS'tamil'
p1506
I3
sS'champions'
p1507
I20
sS'those'
p1508
I3
sS'croatians'
p1509
I3
sS'case'
p1510
I2
sS'soccer'
p1511
I1
sS'disconnected'
p1512
I1
sS'developing'
p1513
I1
sS'these'
p1514
I39
sS'mount'
p1515
I1
sS'cash'
p1516
I114
sS'microinsurance'
p1517
I1
sS'nugegoda'
p1518
I1
sS'gbps'
p1519
I2
sS'ongoing'
p1520
I1
sS'eid'
p1521
I3
sS'cannot'
p1522
I1
sS'fm'
p1523
I5
sS'spotlight'
p1524
I2
sS'coolest'
p1525
I1
sS'muralitharan'
p1526
I1
sS'cafes'
p1527
I1
sS'aqua'
p1528
I1
sS'coffee'
p1529
I1
sS'kasun'
p1530
I2
sS'starfriends'
p1531
I3
sS'middle'
p1532
I4
sS'an'
p1533
I75
sS'evening'
p1534
I3
sS'embrace'
p1535
I1
sS'ivr'
p1536
I3
sS'motivated'
p1537
I1
sS'technology'
p1538
I17
sS'everyday'
p1539
I3
sS'worry'
p1540
I1
sS'movements'
p1541
I1
sS'different'
p1542
I2
sS'develop'
p1543
I4
sS'doctor'
p1544
I33
sS'artists'
p1545
I1
sS'srilanka'
p1546
I24
sS'tour'
p1547
I19
sS'same'
p1548
I6
sS'surveillance'
p1549
I1
sS'ceo'
p1550
I2
sS'chrishan'
p1551
I1
sS'pad'
p1552
I1
sS'magazinosmore'
p1553
I1
sS'asia.book'
p1554
I1
sS'physical'
p1555
I2
sS'events'
p1556
I3
sS'extravaganza'
p1557
I41
sS'aura'
p1558
I1
sS'week'
p1559
I15
sS'visually'
p1560
I1
sS'extended'
p1561
I22
sS'screenshot'
p1562
I6
sS'sickness'
p1563
I1
sS'downloads'
p1564
I1
sS'assist'
p1565
I11
sS'driver'
p1566
I2
sS'drives'
p1567
I4
sS'companion'
p1568
I1
sS'driven'
p1569
I1
sS'fruit'
p1570
I1
sS'two'
p1571
I17
sS'changing'
p1572
I3
sS'tradition'
p1573
I1
sS'pivisenna'
p1574
I1
sS'inflight'
p1575
I9
sS'tracking'
p1576
I7
sS'india.more'
p1577
I1
sS'modes'
p1578
I1
sS'mguide'
p1579
I7
sS'charges'
p1580
I12
sS'letusknow'
p1581
I1
sS'pramod'
p1582
I1
sS'sambandhawa'
p1583
I1
sS'objection'
p1584
I1
sS'without'
p1585
I17
sS'solve'
p1586
I2
sS'relief'
p1587
I1
sS'gaveen'
p1588
I1
sS'model'
p1589
I3
sS'essential'
p1590
I6
sS'amazed'
p1591
I1
sS'charged'
p1592
I4
sS'alerts'
p1593
I31
sS'pakistan'
p1594
I2
sS'being'
p1595
I7
sS'money'
p1596
I5
sS'connectionsfree'
p1597
I2
sS'actions'
p1598
I1
sS'relevant'
p1599
I3
sS'greetings'
p1600
I3
sS'touch'
p1601
I24
sS'nam'
p1602
I1
sS'speed'
p1603
I24
sS'ps4'
p1604
I1
sS'ps5'
p1605
I1
sS'blow'
p1606
I1
sS'announcement'
p1607
I3
sS'death'
p1608
I2
sS'winner'
p1609
I79
sS'widest'
p1610
I2
sS'imessages'
p1611
I1
sS'rental'
p1612
I3
sS'seems'
p1613
I3
sS'iphones'
p1614
I1
sS'managementforward'
p1615
I1
sS'augusttickets'
p1616
I2
sS'tunisia'
p1617
I1
sS'lets'
p1618
I7
sS'setting'
p1619
I2
sS'enlivens'
p1620
I1
sS'thoughts'
p1621
I2
sS'footballwithmobitel'
p1622
I27
sS'relavent'
p1623
I1
sS'careers'
p1624
I1
sS'antman'
p1625
I1
sS'grip'
p1626
I2
sS'kobebryant'
p1627
I1
sS'around'
p1628
I13
sS'spectacular'
p1629
I1
sS'easily'
p1630
I4
sS'read'
p1631
I55
sS'digital'
p1632
I17
sS'katana'
p1633
I1
sS'mou'
p1634
I1
sS'neuer'
p1635
I1
sS'np'
p1636
I2
sS'traffic'
p1637
I2
sS'using'
p1638
I11
sS'aiming'
p1639
I1
sS'sheiyon'
p1640
I1
sS'frolic'
p1641
I1
sS'achieve'
p1642
I1
sS'shafraz'
p1643
I1
sS'phone.check'
p1644
I1
sS'slinga'
p1645
I1
sS'server'
p1646
I1
sS'facing'
p1647
I10
sS'intex'
p1648
I1
sS'benefit'
p1649
I1
sS'donations'
p1650
I1
sS't'
p1651
I2
sS'retailers'
p1652
I3
sS'claw'
p1653
I1
sS'reduced'
p1654
I2
sS'auditorium'
p1655
I2
sS'rs.400'
p1656
I1
sS'joycons'
p1657
I1
sS'ironkids'
p1658
I1
sS'dinesh'
p1659
I1
sS'tvs'
p1660
I1
sS'calling'
p1661
I4
sS'kings'
p1662
I2
sS'images'
p1663
I2
sS'organizing'
p1664
I2
sS'thinks'
p1665
I1
sS'octane'
p1666
I1
sS'aladha'
p1667
I1
sS'provided'
p1668
I4
sS'slice'
p1669
I1
sS'mood'
p1670
I1
sS'micro'
p1671
I1
sS'memories'
p1672
I4
sS'kohilavanan'
p1673
I1
sS'moon'
p1674
I1
sS'belimitless'
p1675
I7
sS'swarnavahini'
p1676
I1
sS'loved'
p1677
I36
sS'critical'
p1678
I2
sS'exit'
p1679
I1
sS'provides'
p1680
I11
sS'provider'
p1681
I12
sS'googles'
p1682
I2
sS'worldcup2019'
p1683
I4
sS'hustle'
p1684
I1
sS'measuring'
p1685
I1
sS'football'
p1686
I12
sS'power'
p1687
I3
sS'asap'
p1688
I2
sS'internship'
p1689
I1
sS'sixth'
p1690
I1
sS'nails'
p1691
I1
sS'lpwan'
p1692
I1
sS'update'
p1693
I2
sS'credits'
p1694
I1
sS'despicable'
p1695
I2
sS'leadership'
p1696
I5
sS'mondaymotivation'
p1697
I5
sS'resurrection'
p1698
I3
sS'roaming'
p1699
I62
sS'exciting'
p1700
I19
sS'executives'
p1701
I7
sS'on'
p1702
I348
sS'midweekmotivation'
p1703
I1
sS'central'
p1704
I2
sS'package'
p1705
I49
sS'of'
p1706
I518
sS'industry'
p1707
I1
sS'violence'
p1708
I1
sS'favorite'
p1709
I7
sS'meaning'
p1710
I1
sS'siri'
p1711
I1
sS'thousands'
p1712
I3
sS'informing'
p1713
I5
sS'wolf'
p1714
I1
sS'stand'
p1715
I121
sS'youve'
p1716
I1
sS'rs.600'
p1717
I1
sS'os'
p1718
I1
sS'or'
p1719
I123
sS'road'
p1720
I3
sS'generations'
p1721
I4
sS'outlook'
p1722
I1
sS'life.happy'
p1723
I1
sS'press'
p1724
I2
sS'communication'
p1725
I2
sS'image'
p1726
I2
sS'fathers'
p1727
I2
sS'blessed'
p1728
I6
sS'snapchat'
p1729
I2
sS'rajinikanth'
p1730
I2
sS'gomes'
p1731
I1
sS'accounts'
p1732
I2
sS'inbox'
p1733
I113
sS'dinusha'
p1734
I1
sS'portrayal'
p1735
I1
sS'valuable'
p1736
I9
sS'your'
p1737
I998
sS'shortlisted'
p1738
I1
sS'bubbly'
p1739
I1
sS'neymar'
p1740
I1
sS'log'
p1741
I6
sS'her'
p1742
I2
sS'managementplease'
p1743
I1
sS'removing'
p1744
I1
sS'mobitelcare'
p1745
I2
sS'there'
p1746
I11
sS'decode'
p1747
I1
sS'start'
p1748
I8
sS'stealth'
p1749
I1
sS'lions'
p1750
I19
sS'low'
p1751
I14
sS'stars'
p1752
I2
sS'shower'
p1753
I1
sS'mornings'
p1754
I1
sS'complete'
p1755
I2
sS'apis'
p1756
I1
sS'risana'
p1757
I1
sS'cortana'
p1758
I1
sS'jul'
p1759
I1
sS'beginners'
p1760
I1
sS'didyouknow'
p1761
I3
sS'ambalangodage'
p1762
I1
sS'technologies'
p1763
I1
sS'trying'
p1764
I1
sS'with'
p1765
I649
sS'team.visit'
p1766
I1
sS'happening'
p1767
I6
sS'pull'
p1768
I1
sS'october'
p1769
I4
sS'romantic'
p1770
I4
sS'proactively'
p1771
I1
sS'ronaldo'
p1772
I1
sS'unveils'
p1773
I3
sS'freddy'
p1774
I1
sS'nasco'
p1775
I1
sS'manuel'
p1776
I1
sS'inform'
p1777
I5
sS'advantage'
p1778
I1
sS'detailed'
p1779
I2
sS'gone'
p1780
I1
sS'thursdaymood'
p1781
I1
sS'videos'
p1782
I3
sS'ai'
p1783
I1
sS'certain'
p1784
I1
sS'sales'
p1785
I1
sS'general'
p1786
I3
sS'imagination'
p1787
I1
sS'as'
p1788
I116
sS'ar'
p1789
I1
sS'daily'
p1790
I5
sS'planets'
p1791
I2
sS'mondaythoughts'
p1792
I1
sS'motorla'
p1793
I1
sS'hospitals'
p1794
I1
sS'film'
p1795
I1
sS'fill'
p1796
I2
sS'uplifts'
p1797
I1
sS'again'
p1798
I22
sS'strikers'
p1799
I1
sS'yoga'
p1800
I2
sS'deserve'
p1801
I2
sS'storage'
p1802
I1
sS'premiums'
p1803
I3
sS'insurance'
p1804
I5
sS'cctv'
p1805
I2
sS'field'
p1806
I1
sS'valid'
p1807
I8
sS'announcements'
p1808
I1
sS'you'
p1809
I716
sS'requested'
p1810
I2
sS'championship'
p1811
I10
sS'students'
p1812
I2
sS'finale'
p1813
I1
sS'midgen'
p1814
I1
sS'includes'
p1815
I1
sS'gifts'
p1816
I9
sS'gravel'
p1817
I1
sS'important'
p1818
I2
sS'a4'
p1819
I1
sS'coverage'
p1820
I7
sS'planners'
p1821
I1
sS'selfcare'
p1822
I6
sS'stocks'
p1823
I2
sS'finals'
p1824
I7
sS'abroadintroducing'
p1825
I2
sS'building'
p1826
I1
sS'aware.check'
p1827
I1
sS'poson'
p1828
I1
sS'assets'
p1829
I4
sS'calls'
p1830
I23
sS'invest'
p1831
I1
sS'rs'
p1832
I105
sS'websites'
p1833
I3
sS'hello'
p1834
I222
sS'snap.click'
p1835
I1
sS'fraudulent'
p1836
I4
sS'mass'
p1837
I1
sS'kuwait'
p1838
I5
sS'ultrafast'
p1839
I1
sS'overseas'
p1840
I1
sS'starting'
p1841
I5
sS'original'
p1842
I5
sS'waiver'
p1843
I1
sS'all'
p1844
I82
sS'since'
p1845
I1
sS'forget'
p1846
I2
sS'ali'
p1847
I1
sS'messi'
p1848
I5
sS'sms'
p1849
I54
sS'beware'
p1850
I1
sS'month'
p1851
I15
sS'gt'
p1852
I1
sS'tours'
p1853
I2
sS'dish'
p1854
I1
sS'salaryday'
p1855
I1
sS'research'
p1856
I19
sS'religious'
p1857
I1
sS'children'
p1858
I3
sS'sriflix'
p1859
I7
sS'bandarawelamore'
p1860
I1
sS'glimpse'
p1861
I6
sS'hospitaldial'
p1862
I1
sS'referring'
p1863
I1
sS'icons'
p1864
I1
sS'tv'
p1865
I18
sS'subjected'
p1866
I1
sS'opportunities'
p1867
I1
sS'spirit'
p1868
I6
sS'to'
p1869
I1170
sS'aaron'
p1870
I1
sS'program'
p1871
I1
sS'spearhead'
p1872
I1
sS'present'
p1873
I3
sS'skip'
p1874
I1
sS'smile'
p1875
I1
sS'countless'
p1876
I1
sS'iphonexsmaxcamera'
p1877
I2
sS'mandela'
p1878
I2
sS'advice'
p1879
I1
sS'woman'
p1880
I3
sS'appointment'
p1881
I1
sS'mpa'
p1882
I1
sS'very'
p1883
I11
sS'careconcert'
p1884
I3
sS'selfies'
p1885
I1
sS'hitha'
p1886
I1
sS'fan'
p1887
I3
sS'decide'
p1888
I1
sS'nalandian'
p1889
I1
sS'sony'
p1890
I1
sS'ticket'
p1891
I2
sS'difference'
p1892
I2
sS'wickramaratne'
p1893
I1
sS'neurological'
p1894
I1
sS'mcashdial'
p1895
I1
sS'mothers'
p1896
I1
sS'recommit'
p1897
I1
sS'poya'
p1898
I2
sS'cup.20'
p1899
I1
sS'jackmans'
p1900
I4
sS'spotlightmeet'
p1901
I1
sS'viber'
p1902
I3
sS'saudi'
p1903
I1
sS'harry'
p1904
I1
sS'small'
p1905
I6
sS'earbuds'
p1906
I1
sS'clinches'
p1907
I1
sS'programme'
p1908
I2
sS'instagram'
p1909
I13
sS'ten'
p1910
I2
sS'past'
p1911
I1
sS'zero'
p1912
I1
sS'design'
p1913
I2
sS'pass'
p1914
I1
sS'further'
p1915
I19
sS'subspecies'
p1916
I1
sS'iceage'
p1917
I2
sS'mill'
p1918
I1
sS'clarence'
p1919
I1
sS'jayawardena'
p1920
I1
sS'dial'
p1921
I101
sS'defence'
p1922
I1
sS'sub'
p1923
I1
sS'nano'
p1924
I1
sS'section'
p1925
I1
sS'version'
p1926
I2
sS'activations'
p1927
I2
sS'jayawardene'
p1928
I2
sS'racing'
p1929
I3
sS'dias'
p1930
I1
sS'handy'
p1931
I4
sS'movement'
p1932
I6
sS'servicesforward'
p1933
I2
sS'full'
p1934
I3
sS'hashan'
p1935
I2
sS'answers'
p1936
I4
sS'duplication'
p1937
I1
sS'hours'
p1938
I1
sS'bloggers'
p1939
I3
sS'energyread'
p1940
I1
sS'ebill'
p1941
I6
sS'november'
p1942
I6
sS'strong'
p1943
I1
sS'legend'
p1944
I8
sS'arena'
p1945
I1
sS'tuned.more'
p1946
I1
sS'happiness'
p1947
I6
sS'ultra'
p1948
I1
sS'ahead'
p1949
I1
sS'frustrating'
p1950
I1
sS'inspired'
p1951
I1
sS'razr'
p1952
I1
sS'allows'
p1953
I7
sS'telecast'
p1954
I1
sS'experience'
p1955
I29
sS'prior'
p1956
I2
sS'amount'
p1957
I1
sS'trophytour'
p1958
I1
sS'avurudulk'
p1959
I3
sS'social'
p1960
I3
sS'action'
p1961
I16
sS'mentions'
p1962
I1
sS'luck'
p1963
I3
sS'allnew'
p1964
I9
sS'nailbiting'
p1965
I1
sS'via'
p1966
I102
sS'family'
p1967
I10
sS'partnering'
p1968
I1
sS'vin'
p1969
I1
sS'screens'
p1970
I3
sS'iphonexsmax'
p1971
I2
sS'moneygram'
p1972
I2
sS'aimed'
p1973
I1
sS'actress'
p1974
I3
sS'suits'
p1975
I5
sS'select'
p1976
I5
sS'emoji'
p1977
I1
sS'silva'
p1978
I5
sS'firstever'
p1979
I1
sS'eye'
p1980
I1
sS'takes'
p1981
I5
sS'former'
p1982
I2
sS'destination'
p1983
I2
sS'finally'
p1984
I1
sS'lakeside'
p1985
I3
sS'worldwaterday2019'
p1986
I1
sS'breakthrough'
p1987
I1
sS'injury'
p1988
I2
sS'avurudu'
p1989
I19
sS'achieving'
p1990
I2
sS'more'
p1991
I402
sS'triumphant'
p1992
I1
sS'door'
p1993
I1
sS'operators'
p1994
I1
sS'batsman'
p1995
I1
sS'lincenses'
p1996
I2
sS'flag'
p1997
I1
sS'particular'
p1998
I2
sS'price.click'
p1999
I1
sS'hurry'
p2000
I2
sS'town'
p2001
I7
sS'evolves'
p2002
I1
sS'keeping'
p2003
I2
sS'endpoint'
p2004
I1
sS'hour'
p2005
I3
sS'supergiant'
p2006
I1
sS'cancer.valuable'
p2007
I1
sS'trcsl'
p2008
I3
sS'vs'
p2009
I32
sS'learn'
p2010
I16
sS'chamika'
p2011
I1
sS'purchases'
p2012
I1
sS'shark'
p2013
I1
sS'challenging'
p2014
I1
sS'gamefactory'
p2015
I3
sS'final'
p2016
I8
sS'suggestions'
p2017
I2
sS'bus'
p2018
I6
sS'collision'
p2019
I1
sS'smartphone'
p2020
I35
sS'numbers'
p2021
I5
sS'purchased'
p2022
I2
sS'mithuru.check'
p2023
I1
sS'huge'
p2024
I1
sS'needs'
p2025
I11
sS'overcharging'
p2026
I1
sS'goal'
p2027
I1
sS'on01126745350112674502'
p2028
I1
sS'rather'
p2029
I5
sS'stickers'
p2030
I4
sS'hugh'
p2031
I4
sS'aedilhaimushkil'
p2032
I1
sS'surpassed'
p2033
I1
sS'menus'
p2034
I1
sS'mediaplease'
p2035
I2
sS'freshly'
p2036
I2
sS'bigil'
p2037
I1
sS'ripmamba'
p2038
I1
sS'explains'
p2039
I1
sS'csr'
p2040
I1
sS'simplicity'
p2041
I1
sS'okay'
p2042
I1
sS'plans'
p2043
I34
sS'thisorthattuesday'
p2044
I1
sS'toyotas'
p2045
I1
sS'shehara'
p2046
I1
sS'minimum'
p2047
I1
sS'internet'
p2048
I85
sS'entrepreneurship'
p2049
I1
sS'panoramic'
p2050
I1
sS'fb'
p2051
I2
sS'opening'
p2052
I2
sS'coming'
p2053
I13
sS'ironman'
p2054
I1
sS'lanka'
p2055
I91
sS'flutter'
p2056
I1
sS'a'
p2057
I609
sS'havelock'
p2058
I1
sS'register'
p2059
I12
sS'anytime'
p2060
I1
sS'hilton'
p2061
I3
sS'wishes'
p2062
I10
sS'hatton'
p2063
I1
sS'media'
p2064
I3
sS'banks'
p2065
I1
sS'facebook'
p2066
I29
sS'dream'
p2067
I14
sS'playing'
p2068
I5
sS'replied'
p2069
I6
sS'worldcupmoments'
p2070
I30
sS'clarifications'
p2071
I2
sS'september'
p2072
I5
sS'developed'
p2073
I1
sS'fathersday'
p2074
I2
sS'soon'
p2075
I26
sS'held'
p2076
I5
sS'logan'
p2077
I4
sS'organize'
p2078
I1
sS'through'
p2079
I37
sS'reconnect'
p2080
I10
sS'signs'
p2081
I2
sS'broadway'
p2082
I1
sS'pamanaki'
p2083
I1
sS'its'
p2084
I45
sS'inquiries'
p2085
I1
sS'comedic'
p2086
I1
sS'athara'
p2087
I2
sS'ebilling'
p2088
I7
sS'alldisplay'
p2089
I1
sS'streamed'
p2090
I2
sS'responsible'
p2091
I1
sS'sevava'
p2092
I1
sS'late'
p2093
I1
sS'quarterfinals'
p2094
I1
sS'individuals'
p2095
I1
sS'systems'
p2096
I2
sS'stephen'
p2097
I1
sS'echannelling'
p2098
I18
sS'argentina'
p2099
I2
sS'mobitel.more'
p2100
I6
sS'might'
p2101
I1
sS'thereafter'
p2102
I1
sS'prodigi'
p2103
I1
sS'good'
p2104
I10
sS'return'
p2105
I1
sS'msdhoni'
p2106
I1
sS'food'
p2107
I1
sS'largest'
p2108
I6
sS'anticipated'
p2109
I1
sS'ces'
p2110
I1
sS'dulneth'
p2111
I1
sS'buffering'
p2112
I2
sS'bollywood'
p2113
I4
sS'struggling'
p2114
I1
sS'bigger'
p2115
I3
sS'mobitelgamingchallengeto'
p2116
I1
sS'ifu'
p2117
I1
sS'emojis'
p2118
I1
sS'always'
p2119
I4
sS'christmasfacts'
p2120
I3
sS'bothie'
p2121
I1
sS'someone'
p2122
I3
sS'habits'
p2123
I1
sS'dubai'
p2124
I6
sS'die'
p2125
I1
sS'found'
p2126
I1
sS'thisorthat'
p2127
I1
sS'guesswhat'
p2128
I1
sS'ports'
p2129
I1
sS'flashbacks'
p2130
I1
sS'status'
p2131
I1
sS'everyone'
p2132
I7
sS'england'
p2133
I8
sS'mental'
p2134
I1
sS'mums'
p2135
I1
sS'generation'
p2136
I4
sS'hakiyi'
p2137
I1
sS'energy'
p2138
I2
sS'hard'
p2139
I1
sS'reduce'
p2140
I2
sS'revamps'
p2141
I1
sS'broadbandplease'
p2142
I1
sS'kong.more'
p2143
I1
sS'connect'
p2144
I6
sS'blues'
p2145
I1
sS'higherresolution'
p2146
I1
sS'event'
p2147
I7
sS'really'
p2148
I1
sS'lolc'
p2149
I4
sS'try'
p2150
I16
sS'dominates'
p2151
I1
sS'missed'
p2152
I1
sS'wondered'
p2153
I1
sS'p'
p2154
I1
sS'singapore'
p2155
I10
sS'nadeera'
p2156
I2
sS'wolverine'
p2157
I4
sS'commemorative'
p2158
I1
sS'participants'
p2159
I1
sS'mithuranne'
p2160
I1
sS'safety'
p2161
I1
sS'hill'
p2162
I1
sS'excellence'
p2163
I9
sS'offline'
p2164
I2
sS'issue'
p2165
I14
sS'salute'
p2166
I2
sS'happybirthdaymessi'
p2167
I1
sS'timeline'
p2168
I10
sS'shaheed'
p2169
I1
sS'story'
p2170
I3
sS'diploma'
p2171
I1
sS'pleasant'
p2172
I6
sS'difficulty'
p2173
I3
sS'reason'
p2174
I2
sS'base'
p2175
I1
sS'giveaway'
p2176
I3
sS'imagine'
p2177
I2
sS'put'
p2178
I2
sS'koolspace'
p2179
I2
sS'ash'
p2180
I1
sS'wall'
p2181
I2
sS'revolutionary'
p2182
I17
sS'makeaguess'
p2183
I2
sS'owners'
p2184
I1
sS'benefits'
p2185
I21
sS'ms'
p2186
I5
sS'thread'
p2187
I1
sS'launch'
p2188
I9
sS'sanath'
p2189
I1
sS'published'
p2190
I1
sS'so'
p2191
I8
sS'caption'
p2192
I2
sS'american'
p2193
I4
sS'lavinia'
p2194
I1
sS'enough'
p2195
I1
sS'heartiest'
p2196
I3
sS'mangosteen'
p2197
I1
sS'celebszone'
p2198
I8
sS'gif'
p2199
I1
sS'feed'
p2200
I1
sS'unsatisfied'
p2201
I1
sS'major'
p2202
I3
sS'dont'
p2203
I3
sS'dina'
p2204
I1
sS'starwars'
p2205
I1
sS'feel'
p2206
I3
sS'churning'
p2207
I1
sS'maritime'
p2208
I2
sS'number'
p2209
I208
sS'valentine'
p2210
I1
sS'revolution'
p2211
I4
sS'applenews'
p2212
I1
sS'colombia'
p2213
I1
sS'fees'
p2214
I1
sS'kobe'
p2215
I1
sS'miss'
p2216
I9
sS'passes'
p2217
I3
sS'differ'
p2218
I1
sS'leading'
p2219
I3
sS'interviews'
p2220
I5
sS'hangs'
p2221
I1
sS'bigscreen'
p2222
I1
sS'belongs'
p2223
I1
sS'station'
p2224
I6
sS'renewable'
p2225
I1
sS'passed'
p2226
I1
sS'master'
p2227
I37
sS'chamila'
p2228
I2
sS'store'
p2229
I4
sS'gps'
p2230
I5
sS'warmly'
p2231
I1
sS'saint'
p2232
I1
sS'costa'
p2233
I1
sS'goldenchimes'
p2234
I1
sS'park'
p2235
I1
sS'kitchen'
p2236
I1
sS'part'
p2237
I6
sS'livestream'
p2238
I1
sS'doctors'
p2239
I1
sS'sheer'
p2240
I1
sS'information.'
p2241
I1
sS'grace'
p2242
I1
sS'talktime'
p2243
I1
sS'king'
p2244
I4
sS'kind'
p2245
I2
sS'b'
p2246
I1
sS'kindly'
p2247
I148
sS'recruitment'
p2248
I1
sS'double'
p2249
I1
sS'worldenvironmentalhealthday'
p2250
I1
sS'aims'
p2251
I1
sS'youth'
p2252
I2
sS'minimize'
p2253
I1
sS'rs.5'
p2254
I3
sS'villiers'
p2255
I1
sS'rs.2'
p2256
I3
sS'rs.1'
p2257
I2
sS'seamlessly'
p2258
I5
sS'lease'
p2259
I1
sS'dana'
p2260
I1
sS'interactive'
p2261
I1
sS'motivation'
p2262
I6
sS'outstanding'
p2263
I1
sS'alongside'
p2264
I1
sS'download'
p2265
I50
sS'kara'
p2266
I3
sS'grid.this'
p2267
I1
sS'visionmore'
p2268
I1
sS'mobitelmasterunlimited'
p2269
I1
sS'orders'
p2270
I4
sS'nights'
p2271
I1
sS'mobitel4g'
p2272
I11
sS'built'
p2273
I1
sS'depending'
p2274
I3
sS'trip'
p2275
I1
sS'discounts'
p2276
I11
sS'self'
p2277
I1
sS'cave'
p2278
I1
sS'megano'
p2279
I1
sS'find'
p2280
I12
sS'breeze'
p2281
I2
sS'build'
p2282
I3
sS'finding'
p2283
I2
sS'signup'
p2284
I1
sS'headphone'
p2285
I3
sS'play'
p2286
I11
sS'towards'
p2287
I2
sS'electric'
p2288
I2
sS'mentality'
p2289
I2
sS'inconvenience'
p2290
I119
sS'reach'
p2291
I1
sS'most'
p2292
I31
sS'impacting'
p2293
I1
sS'plan'
p2294
I21
sS'services'
p2295
I13
sS'extremely'
p2296
I4
sS'salary'
p2297
I1
sS'garumuni'
p2298
I1
sS'creators'
p2299
I1
sS'argentinians'
p2300
I1
sS'mobile'
p2301
I193
sS'clear'
p2302
I5
sS'karanna'
p2303
I1
sS'health.check'
p2304
I1
sS'traditional'
p2305
I2
sS'tpu'
p2306
I1
sS'optical'
p2307
I1
sS'clean'
p2308
I1
sS'fullypaid'
p2309
I1
sS'mondayblues'
p2310
I1
sS'notch'
p2311
I1
sS'microsoft'
p2312
I8
sS'joining'
p2313
I1
sS'sector'
p2314
I8
sS'particularly'
p2315
I1
sS'gold'
p2316
I7
sS'cruises'
p2317
I1
sS'bookmyshow'
p2318
I1
sS'blended'
p2319
I1
sS'slim'
p2320
I8
sS'dilshan'
p2321
I3
sS'businesses'
p2322
I2
sS'shares'
p2323
I2
sS'senegalese'
p2324
I1
sS'newest'
p2325
I4
sS'hakida'
p2326
I1
sS'fine'
p2327
I1
sS'rtx'
p2328
I1
sS'impact'
p2329
I1
sS'adhahasak'
p2330
I1
sS'northern'
p2331
I1
sS'scooter'
p2332
I1
sS'writer'
p2333
I1
sS'nce'
p2334
I1
sS'penalty'
p2335
I2
sS'upay'
p2336
I1
sS'ahinsaka'
p2337
I1
sS'baila'
p2338
I1
sS'giants'
p2339
I1
sS'his'
p2340
I8
sS'hit'
p2341
I4
sS'dependent'
p2342
I1
sS'famous'
p2343
I3
sS'systemsif'
p2344
I1
sS'courage'
p2345
I1
sS'rest'
p2346
I4
sS'childrensday'
p2347
I1
sS'reply'
p2348
I4
sS'during'
p2349
I11
sS'banner'
p2350
I2
sS'iolk18'
p2351
I1
sS'resend'
p2352
I1
sS'resolve'
p2353
I4
sS'medicines'
p2354
I1
sS'highresolution'
p2355
I1
sS'remove'
p2356
I2
sS'banking'
p2357
I12
sS'croatia'
p2358
I2
sS'common'
p2359
I1
sS'i6'
p2360
I1
sS'andhum'
p2361
I1
sS'switzerland'
p2362
I1
sS'x'
p2363
I4
sS'disablement'
p2364
I1
sS'paperless.'
p2365
I1
sS'insane'
p2366
I2
sS't.m.dilshan'
p2367
I1
sS'bars'
p2368
I1
sS'set'
p2369
I5
sS'art'
p2370
I1
sS'haraha'
p2371
I1
sS'devils'
p2372
I1
sS'intelligence'
p2373
I2
sS'seats'
p2374
I2
sS'startup'
p2375
I3
sS'deactivation'
p2376
I1
sS'pongal.'
p2377
I1
sS'achieves'
p2378
I1
sS'mcash'
p2379
I80
sS'see'
p2380
I7
sS'individual'
p2381
I1
sS'are'
p2382
I126
sS'sea'
p2383
I1
sS'close'
p2384
I6
sS'glory.which'
p2385
I1
sS'airdot'
p2386
I1
sS'recording'
p2387
I1
sS'mr.ranjan'
p2388
I1
sS'expert'
p2389
I5
sS'fliptop'
p2390
I1
sS'kanagaatu'
p2391
I2
sS'movie'
p2392
I52
sS'currently'
p2393
I2
sS'please'
p2394
I191
sS'vijayakumar'
p2395
I1
sS'pickup'
p2396
I1
sS'won'
p2397
I3
sS'vindiesel'
p2398
I1
sS'happybirthdaynuwan'
p2399
I1
sS'thankyoudilshan'
p2400
I4
sS'familys'
p2401
I1
sS'donate'
p2402
I1
sS'conditions'
p2403
I2
sS'celebrity'
p2404
I1
sS'tried'
p2405
I1
sS'available'
p2406
I33
sS'korea'
p2407
I2
sS'recently'
p2408
I1
sS'digitalwellbeing'
p2409
I1
sS'unlimitedfun'
p2410
I1
sS'afrath'
p2411
I1
sS'outfit'
p2412
I1
sS'roshan'
p2413
I2
sS'ranked'
p2414
I1
sS'prerelease'
p2415
I1
sS'response'
p2416
I3
sS'iphonexs'
p2417
I2
sS'iphonexr'
p2418
I1
sS'kvaseason1'
p2419
I1
sS'bronze'
p2420
I2
sS'floats'
p2421
I1
sS'mahela'
p2422
I2
sS'league'
p2423
I3
sS'c'
p2424
I3
sS'feeling'
p2425
I2
sS'last'
p2426
I9
sS'iphonex'
p2427
I1
sS'mega'
p2428
I3
sS'restaurant'
p2429
I1
sS'secrets'
p2430
I1
sS'annual'
p2431
I3
sS'connection'
p2432
I17
sS'became'
p2433
I2
sS'buzz'
p2434
I2
sS'maneesha'
p2435
I1
sS'let'
p2436
I11
sS'whole'
p2437
I1
sS'load'
p2438
I3
sS'iphone11'
p2439
I1
sS'clashing'
p2440
I1
sS'point'
p2441
I4
sS'reasons'
p2442
I1
sS'sweet'
p2443
I1
sS'loan'
p2444
I3
sS'each'
p2445
I4
sS'megapixel'
p2446
I1
sS'dancer'
p2447
I1
sS'simply'
p2448
I51
sS'gavin'
p2449
I1
sS'throughout'
p2450
I1
sS'mission'
p2451
I1
sS'goats'
p2452
I1
sS'cheapest'
p2453
I1
sS'java'
p2454
I2
sS'raise'
p2455
I4
sS'monthly'
p2456
I9
sS'help'
p2457
I59
sS'create'
p2458
I3
sS'instalment'
p2459
I1
sS'strategy'
p2460
I1
sS'pc'
p2461
I5
sS'reduction'
p2462
I2
sS'ireland'
p2463
I2
sS'z3'
p2464
I1
sS'better.here'
p2465
I1
sS'delights'
p2466
I1
sS'pm'
p2467
I2
sS'firm'
p2468
I1
sS'ces.find'
p2469
I1
sS'modern'
p2470
I1
sS'champion'
p2471
I4
sS'sending'
p2472
I1
sS'surfacing'
p2473
I1
sS'else'
p2474
I2
sS'vana'
p2475
I1
sS'sinhalaandtamilnewyear'
p2476
I1
sS'races'
p2477
I1
sS'lives'
p2478
I2
sS'goyo'
p2479
I10
sS'demand'
p2480
I1
sS'prices'
p2481
I3
sS'presented'
p2482
I5
sS'labaganna'
p2483
I1
sS'intriguing'
p2484
I1
sS'loom'
p2485
I1
sS'look'
p2486
I23
sS'stadia'
p2487
I2
sS'madhusankha'
p2488
I1
sS'pathiranage'
p2489
I1
sS'reliable'
p2490
I1
sS'bill'
p2491
I13
sS'budget'
p2492
I1
sS'rope'
p2493
I1
sS'while'
p2494
I6
sS'fifawithmobitel'
p2495
I13
sS'error'
p2496
I5
sS'fun'
p2497
I10
sS'spbs'
p2498
I1
sS'guide'
p2499
I2
sS'theres'
p2500
I2
sS'scheduled'
p2501
I1
sS'mclaren'
p2502
I1
sS'century'
p2503
I1
sS'vijayanandasiri'
p2504
I1
sS'motors'
p2505
I1
sS'rip'
p2506
I3
sS'moto'
p2507
I1
sS'conversation.talk'
p2508
I1
sS'triple'
p2509
I1
sS'seen'
p2510
I1
sS'ready'
p2511
I14
sS'rid'
p2512
I1
sS'aged'
p2513
I1
sS'italy'
p2514
I1
sS'fate'
p2515
I1
sS'dharmabandu'
p2516
I1
sS'allelectric'
p2517
I1
sS'rifaz'
p2518
I1
sS'shira'
p2519
I1
sS'q1q5'
p2520
I1
sS'labaa'
p2521
I1
sS'peoples'
p2522
I4
sS'manuja'
p2523
I1
sS'superfast'
p2524
I9
sS'exams'
p2525
I2
sS'passwords'
p2526
I1
sS'bonus'
p2527
I5
sS'ladi'
p2528
I1
sS'friends'
p2529
I15
sS'yesterday'
p2530
I3
sS'holidays'
p2531
I3
sS'moment'
p2532
I11
sS'uses'
p2533
I1
sS'cleaning'
p2534
I1
sS'espncricinfo'
p2535
I2
sS'muttiah'
p2536
I1
sS'ab'
p2537
I1
sS'residents'
p2538
I1
sS'euro'
p2539
I2
sS'dark'
p2540
I1
sS'safe'
p2541
I4
sS'task'
p2542
I1
sS'herewith'
p2543
I10
sS'poland'
p2544
I1
sS'itsgonnabefriday'
p2545
I1
sS'gajaman'
p2546
I1
sS'honor'
p2547
I1
sS'kurita'
p2548
I1
sS'dearzindagi'
p2549
I1
sS'cheer'
p2550
I1
sS'edge'
p2551
I4
sS'flags'
p2552
I1
sS'withdraw'
p2553
I1
sS'swiss'
p2554
I1
sS'tass'
p2555
I2
sS'mobiteleagles'
p2556
I3
sS'spend'
p2557
I5
sS'prevention'
p2558
I2
sS'ambassador'
p2559
I6
sS'abilities'
p2560
I1
sS'rs.100'
p2561
I12
sS'from'
p2562
I299
sS'networks'
p2563
I2
sS'product'
p2564
I3
sS'lionelmessi'
p2565
I1
sS'shape'
p2566
I1
sS'newyearplans'
p2567
I1
sS'anchoring'
p2568
I1
sS'questions'
p2569
I12
sS'world'
p2570
I88
sS'retired'
p2571
I8
sS'startups'
p2572
I1
sS'phones.they'
p2573
I1
sS'ministry'
p2574
I1
sS'ban'
p2575
I8
sS'cric'
p2576
I1
sS'arjuna'
p2577
I1
sS'loading'
p2578
I1
sS'helping'
p2579
I1
sS'acquiring'
p2580
I1
sS'cup'
p2581
I52
sS'surprises'
p2582
I3
sS'workers'
p2583
I2
sS'advertisements'
p2584
I2
sS'humanoid'
p2585
I1
sS'exclusively'
p2586
I1
sS'brewed'
p2587
I1
sS'parents'
p2588
I1
sS'exhibition'
p2589
I1
sS'appathurai'
p2590
I1
sS'easter'
p2591
I5
sS'mquote'
p2592
I3
sS'mobitelleaders'
p2593
I5
sS'australia'
p2594
I11
sS'march'
p2595
I2
sS'senasinghe'
p2596
I1
sS'big'
p2597
I22
sS'couple'
p2598
I1
sS'unlimited'
p2599
I130
sS'combank'
p2600
I1
sS'game'
p2601
I12
sS'quest'
p2602
I1
sS'kasi'
p2603
I1
sS'kashyapa'
p2604
I1
sS'bit'
p2605
I1
sS'melioidosis'
p2606
I1
sS'knock'
p2607
I3
sS'mobitel5g'
p2608
I1
sS'cognitive'
p2609
I1
sS'semi'
p2610
I1
sS'o.v.p'
p2611
I1
sS'digitalized'
p2612
I1
sS'communications'
p2613
I1
sS'continue'
p2614
I10
sS'iphone7'
p2615
I1
sS'usb'
p2616
I1
sS'christmasmessage'
p2617
I2
sS'footballfacts'
p2618
I1
sS'mcricket'
p2619
I4
sS'google'
p2620
I50
sS'absolutely'
p2621
I4
sS'r.a'
p2622
I1
sS'some'
p2623
I12
sS'back'
p2624
I25
sS'mr.nalin'
p2625
I1
sS'urgent'
p2626
I1
sS'trends'
p2627
I1
sS'pack'
p2628
I13
sS'palm'
p2629
I1
sS'examples'
p2630
I1
sS'b2'
p2631
I1
sS'isnt'
p2632
I1
sS'started.more'
p2633
I3
sS'allianceforward'
p2634
I1
sS'delivered'
p2635
I3
sS'qatar'
p2636
I1
sS'apa'
p2637
I3
sS'canyouguess'
p2638
I1
sS'closest'
p2639
I1
sS'irfan'
p2640
I1
sS'exceeding'
p2641
I1
sS'per'
p2642
I61
sS'competitions'
p2643
I4
sS'pen'
p2644
I4
sS'connecting'
p2645
I1
sS'innovation'
p2646
I9
sS'prof'
p2647
I1
sS'ajantha'
p2648
I1
sS'be'
p2649
I83
sS'run'
p2650
I3
sS'network.for'
p2651
I2
sS'year.more'
p2652
I1
sS'processing'
p2653
I1
sS'use'
p2654
I20
sS'snake'
p2655
I1
sS'infra'
p2656
I1
sS'step'
p2657
I4
sS'iosefo'
p2658
I2
sS'become'
p2659
I3
sS'vemu'
p2660
I1
sS'abroad'
p2661
I12
sS'depositmoney'
p2662
I1
sS'projector'
p2663
I1
sS'fifaworldcup'
p2664
I5
sS'faith'
p2665
I1
sS'wildlife'
p2666
I1
sS'wrecking'
p2667
I1
sS'netflix'
p2668
I3
sS'sampath'
p2669
I3
sS'mobitelgaming'
p2670
I1
sS'overeseas'
p2671
I1
sS'lankanlions'
p2672
I2
sS'range'
p2673
I7
sS'alert'
p2674
I2
sS'wanne'
p2675
I1
sS'messaging'
p2676
I7
sS'idd'
p2677
I74
sS'womens'
p2678
I1
sS'block'
p2679
I1
sS'channeling'
p2680
I1
sS'real'
p2681
I3
sS'funniesttweets'
p2682
I1
sS'nsb'
p2683
I23
sS'prizes.more'
p2684
I4
sS'retailer'
p2685
I12
sS'googledoodle'
p2686
I1
sS'homepod'
p2687
I1
sS'tournament.which'
p2688
I1
sS'depost'
p2689
I1
sS'france'
p2690
I4
sS'bangladesh'
p2691
I2
sS'arcade'
p2692
I1
sS'few'
p2693
I4
sS'question'
p2694
I10
sS'word.may'
p2695
I1
sS'long'
p2696
I11
sS'alphaone'
p2697
I1
sS'camera'
p2698
I10
sS'infected'
p2699
I1
sS'suit'
p2700
I9
sS'forward'
p2701
I22
sS'promotions'
p2702
I3
sS'bigmatchfever'
p2703
I1
sS'receiving'
p2704
I5
sS'gamechanging'
p2705
I1
sS'great'
p2706
I10
sS'registered'
p2707
I4
sS'instalments'
p2708
I1
sS'datamart.simply'
p2709
I1
sS'larry'
p2710
I1
sS'link'
p2711
I65
sS'competition'
p2712
I13
sS'ganeemata'
p2713
I1
sS'subsidiary'
p2714
I1
sS'line'
p2715
I3
sS'junior'
p2716
I10
sS'treats'
p2717
I3
sS'directed'
p2718
I3
sS'dataplan'
p2719
I1
sS'skull'
p2720
I2
sS'vacancies'
p2721
I11
sS'requesting'
p2722
I1
sS'up'
p2723
I37
sS'us'
p2724
I198
sS'ur'
p2725
I1
sS'clips'
p2726
I1
sS'windows'
p2727
I4
sS'customers'
p2728
I54
sS'tonight.will'
p2729
I1
sS'uk'
p2730
I5
sS'doors'
p2731
I1
sS'imran'
p2732
I1
sS'autonomous'
p2733
I3
sS'z'
p2734
I1
sS'similar'
p2735
I1
sS'medical'
p2736
I1
sS'encounter.will'
p2737
I1
sS'spiritual'
p2738
I1
sS'derana'
p2739
I3
sS'cover'
p2740
I5
sS'balance.dial'
p2741
I1
sS'accessibility'
p2742
I1
sS'globally'
p2743
I1
sS'single'
p2744
I1
sS'iair'
p2745
I1
sS'here.this'
p2746
I1
sS'chat'
p2747
I3
sS'prevail'
p2748
I1
sS'kombat'
p2749
I1
sS'codes'
p2750
I3
sS'mcompetitions'
p2751
I1
sS'employment'
p2752
I1
sS'peace'
p2753
I8
sS'matching'
p2754
I1
sS'actors'
p2755
I1
sS'income'
p2756
I4
sS'department'
p2757
I2
sS'amalan'
p2758
I2
sS'nay'
p2759
I1
sS'cricket'
p2760
I22
sS'nice'
p2761
I2
sS'smiles'
p2762
I1
sS'draw'
p2763
I4
sS'alwis'
p2764
I8
sS'deans'
p2765
I1
sS'accidental'
p2766
I1
sS'getting'
p2767
I4
sS'favourite'
p2768
I34
sS'force2'
p2769
I1
sS'xiaomi'
p2770
I2
sS'luxurious'
p2771
I3
sS'lens'
p2772
I3
sS'drag'
p2773
I6
sS'gameofthrones'
p2774
I1
sS'audience'
p2775
I2
sS'sides'
p2776
I1
sS'ago'
p2777
I1
sS'land'
p2778
I5
sS'sagara'
p2779
I1
sS'trail'
p2780
I1
sS'age'
p2781
I4
sS'vehicles'
p2782
I4
sS'wellbeing'
p2783
I2
sS'orbit'
p2784
I1
sS'fwd2016'
p2785
I1
sS'summit'
p2786
I1
sS'dot'
p2787
I1
sS'dulani'
p2788
I1
sS'far'
p2789
I6
sS'failures'
p2790
I1
sS'having'
p2791
I1
sS'once'
p2792
I9
sS'code'
p2793
I2
sS'complianceforward'
p2794
I1
sS'results'
p2795
I1
sS'worldsmileday'
p2796
I1
sS'existing'
p2797
I7
sS'alien'
p2798
I1
sS'mobiteltalentstar'
p2799
I1
sS'go'
p2800
I40
sS'query'
p2801
I1
sS'issues'
p2802
I1
sS'echannelling.more'
p2803
I4
sS'compose'
p2804
I1
sS'pope'
p2805
I1
sS'concerned'
p2806
I1
sS'itll'
p2807
I1
sS'young'
p2808
I2
sS'send'
p2809
I28
sS'lka'
p2810
I3
sS'languages'
p2811
I3
sS'herath'
p2812
I1
sS'helps'
p2813
I1
sS'suite'
p2814
I4
sS'include'
p2815
I1
sS'gb'
p2816
I12
sS'friendly'
p2817
I1
sS'sent'
p2818
I8
sS'pay'
p2819
I10
sS'confirmation'
p2820
I4
sS'dreaming'
p2821
I2
sS'teresa'
p2822
I1
sS'continues'
p2823
I1
sS'tbcasia'
p2824
I4
sS'shakthi'
p2825
I2
sS'bowler'
p2826
I1
sS'putting'
p2827
I1
sS'bryant'
p2828
I1
sS'arrange'
p2829
I1
sS'magic'
p2830
I1
sS'rangika'
p2831
I1
sS'experiencing'
p2832
I1
sS'button'
p2833
I4
sS'deals'
p2834
I7
sS'race'
p2835
I10
sS'karannata'
p2836
I1
sS'comprise'
p2837
I1
sS'havent'
p2838
I2
sS'refer'
p2839
I18
sS'challenge'
p2840
I1
sS'messageif'
p2841
I1
sS'concluded'
p2842
I1
sS'pledge'
p2843
I1
sS'madugalles'
p2844
I1
sS'jump'
p2845
I1
sS'odi'
p2846
I12
sS'video'
p2847
I21
sS'itn'
p2848
I1
sS'concludes'
p2849
I1
sS'licenses'
p2850
I7
sS'posonpoya'
p2851
I1
sS'click'
p2852
I59
sS'depression'
p2853
I2
sS'nothing'
p2854
I1
sS'plays'
p2855
I2
sS'business'
p2856
I24
sS'rs.20'
p2857
I1
sS'facilities.more'
p2858
I1
sS'giving'
p2859
I2
sS'gamezone'
p2860
I1
sS'ended'
p2861
I3
sS'access'
p2862
I14
sS'huawei'
p2863
I12
sS'waiting'
p2864
I3
sS'indian'
p2865
I1
sS'chamari'
p2866
I1
sS'internationalchildrensday'
p2867
I1
sS'body'
p2868
I1
sS'completion'
p2869
I1
sS'focuses'
p2870
I1
sS'mews'
p2871
I1
sS'chose'
p2872
I1
sS'mobitelleadership'
p2873
I2
sS'leg'
p2874
I3
sS'commercial'
p2875
I1
sS'delivering'
p2876
I1
sS'growing'
p2877
I1
sS'explore'
p2878
I11
sS'focused'
p2879
I1
sS'licence'
p2880
I1
sS'consideration'
p2881
I1
sS'joins'
p2882
I2
sS'dimuthu'
p2883
I1
sS'convert'
p2884
I2
sS'talent'
p2885
I10
sS'doctorstrange'
p2886
I1
sS'receive'
p2887
I10
sS'didnt'
p2888
I1
sS'larger'
p2889
I2
sS'shades'
p2890
I1
sS'products'
p2891
I4
sS'defeat'
p2892
I1
sS'popcorn'
p2893
I1
sS'climb'
p2894
I1
sS'makes'
p2895
I3
sS'delays'
p2896
I2
sS'thats'
p2897
I1
sS'tharindu'
p2898
I2
sS'named'
p2899
I4
sS'badulla'
p2900
I1
sS'apple'
p2901
I9
sS'nearest'
p2902
I8
sS'win'
p2903
I244
sS'app'
p2904
I66
sS'manage'
p2905
I5
sS'distractions'
p2906
I1
sS'apn'
p2907
I2
sS'names'
p2908
I1
sS'mahagastotte'
p2909
I1
sS'techwithmobitel'
p2910
I20
sS'apply'
p2911
I50
sS'resolutions'
p2912
I1
sS'tricksclick'
p2913
I1
sS'tools'
p2914
I1
sS'gateway'
p2915
I1
sS'cloud'
p2916
I3
sS'standing'
p2917
I6
sS'camers'
p2918
I1
sS'cardoctor'
p2919
I1
sS'fee'
p2920
I6
sS'feb'
p2921
I1
sS'ushers'
p2922
I1
sS'usa'
p2923
I6
sS'blockchain'
p2924
I2
sS'remittance'
p2925
I2
sS'next'
p2926
I32
sS'zig'
p2927
I1
sS'doubt'
p2928
I1
sS'cashback'
p2929
I1
sS'vehicle'
p2930
I3
sS'd'
p2931
I2
sS'eagles'
p2932
I12
sS'hiding'
p2933
I1
sS'dreams'
p2934
I5
sS'xstation.visit'
p2935
I3
sS'lakmal'
p2936
I1
sS'upcoming'
p2937
I1
sS'started'
p2938
I7
sS'becomes'
p2939
I2
sS'local'
p2940
I4
sS'about'
p2941
I73
sS'reloads'
p2942
I1
sS'train'
p2943
I6
sS'prizes'
p2944
I9
sS'baby'
p2945
I1
sS'ok'
p2946
I1
sS'tearing'
p2947
I1
sS'harvest'
p2948
I1
sS'appointed'
p2949
I2
sS'women'
p2950
I1
sS'customer'
p2951
I55
sS'majority'
p2952
I1
sS'account'
p2953
I15
sS'balls'
p2954
I1
sS'effectively'
p2955
I1
sS'this'
p2956
I318
sS'salah'
p2957
I1
sS'when'
p2958
I37
sS'echanneling'
p2959
I1
sS'alyx'
p2960
I1
sS'm3force'
p2961
I2
sS'anywhere'
p2962
I10
sS'island'
p2963
I5
sS'meet'
p2964
I4
sS'closing'
p2965
I2
sS'repairman'
p2966
I4
sS'disabilities'
p2967
I1
sS'phonecare'
p2968
I1
sS'nawas'
p2969
I1
sS'control'
p2970
I4
sS'douglass'
p2971
I1
sS'sri'
p2972
I138
sS'tap'
p2973
I1
sS'links'
p2974
I1
sS'process'
p2975
I1
sS'lock'
p2976
I1
sS'benz'
p2977
I8
sS'tax'
p2978
I13
sS'spearheads'
p2979
I1
sS'promotional'
p2980
I8
sS'high'
p2981
I4
sS'renewed'
p2982
I2
sS'cinnamonhotels'
p2983
I4
sS'tag'
p2984
I1
sS'customersmore'
p2985
I2
sS'something'
p2986
I2
sS'tab'
p2987
I1
sS'newyeargreetings'
p2988
I1
sS'expandable'
p2989
I1
sS'voice'
p2990
I15
sS'serial'
p2991
I1
sS'mtune'
p2992
I15
sS'moviefacts'
p2993
I1
sS'sir'
p2994
I6
sS'malware'
p2995
I3
sS'united'
p2996
I2
sS'guru'
p2997
I7
sS'preorder'
p2998
I6
sS'inaugural'
p2999
I1
sS'digitalmediamore'
p3000
I1
sS'delay'
p3001
I19
sS'mnr'
p3002
I1
sS'winners'
p3003
I24
sS'galle'
p3004
I1
sS'lodge'
p3005
I4
sS'shashika'
p3006
I1
sS'intelligent'
p3007
I1
sS'sim'
p3008
I39
sS'hafiz'
p3009
I1
sS'profile'
p3010
I1
sS'mspace'
p3011
I1
sS'db'
p3012
I3
sS'act'
p3013
I12
sS'abuse'
p3014
I1
sS'distances'
p3015
I1
sS'share'
p3016
I9
sS'halwatura'
p3017
I1
sS'rathnayake'
p3018
I1
sS'assassin'
p3019
I1
sS'light'
p3020
I6
sS'lines'
p3021
I1
sS'feels'
p3022
I2
sS'aththe'
p3023
I1
sS'scoop'
p3024
I1
sS'chief'
p3025
I1
sS'generalknowledge'
p3026
I1
sS'allow'
p3027
I1
sS'healthcare'
p3028
I4
sS'favourites'
p3029
I1
sS'software'
p3030
I1
sS'secured'
p3031
I1
sS'fastest'
p3032
I36
sS'holds'
p3033
I1
sS'unbreakable'
p3034
I1
sS'producer'
p3035
I1
sS'cooplife'
p3036
I1
sS's6'
p3037
I5
sS'including'
p3038
I3
sS'mentioned'
p3039
I3
sS'daysto'
p3040
I2
sS'facilitates'
p3041
I1
sS'galaxy'
p3042
I39
sS'EMO_POS'
p3043
I7
sS'perfect'
p3044
I1
sS'lounge'
p3045
I2
sS'ultracurved'
p3046
I1
sS'avishka'
p3047
I2
sS'kaluwitharana'
p3048
I1
sS'choose'
p3049
I5
sS'pensioners'
p3050
I1
sS'sentiments'
p3051
I2
sS'holiday'
p3052
I10
sS'pixel'
p3053
I1
sS'iol18'
p3054
I1
sS'mobiteldesktop'
p3055
I1
sS'halflife'
p3056
I2
sS'greater'
p3057
I2
sS'nokia'
p3058
I9
sS'stores.click'
p3059
I1
sS'yearend'
p3060
I1
sS'auth'
p3061
I1
sS'p10'
p3062
I6
sS'mention'
p3063
I3
sS'inboc'
p3064
I1
sS'legendary'
p3065
I1
sS'talal'
p3066
I1
sS'impaired'
p3067
I1
sS'kindness'
p3068
I10
sS'cage'
p3069
I1
sS'realize'
p3070
I1
sS'strive'
p3071
I1
sS'mawatha'
p3072
I3
sS'february'
p3073
I2
sS'kiribathgoda'
p3074
I1
sS'university'
p3075
I3
sS'verithanam'
p3076
I1
sS'blazing'
p3077
I1
sS'exponential'
p3078
I1
sS'mode'
p3079
I1
sS'truth'
p3080
I1
sS'fields'
p3081
I11
sS'rising'
p3082
I2
sS'bills'
p3083
I6
sS'francisco'
p3084
I1
sS'activate'
p3085
I46
sS'again.the'
p3086
I1
sS'doing'
p3087
I13
sS'hong'
p3088
I1
sS'apologize'
p3089
I127
sS'unbelievable'
p3090
I3
sS'bluetooth'
p3091
I1
sS'society'
p3092
I3
sS'books'
p3093
I1
sS'measure'
p3094
I1
sS'our'
p3095
I140
sS'special'
p3096
I30
sS'out'
p3097
I49
sS'category'
p3098
I3
sS'entertainment'
p3099
I5
sS'defend'
p3100
I1
sS'm2m'
p3101
I1
sS'dominated'
p3102
I1
sS'messenger'
p3103
I2
sS'siraj'
p3104
I1
sS'stun'
p3105
I1
sS'reg'
p3106
I36
sS'red'
p3107
I3
sS'gears'
p3108
I1
sS'wallpaper'
p3109
I1
sS'cricketer'
p3110
I13
sS'frank'
p3111
I1
sS'fantasticbeastsandwheretofindthem'
p3112
I1
sS'hype'
p3113
I4
sS'completely'
p3114
I2
sS'latest'
p3115
I42
sS'early'
p3116
I1
sS'van'
p3117
I2
sS'shortest'
p3118
I1
sS'marvan'
p3119
I1
sS'cri'
p3120
I5
sS'rs.17'
p3121
I1
sS'avurudunakatha'
p3122
I1
sS'could'
p3123
I159
sS'ask'
p3124
I1
sS'keep'
p3125
I5
sS'illicit'
p3126
I1
sS'belgians'
p3127
I2
sS'lte'
p3128
I13
sS'mortal'
p3129
I1
sS'hence'
p3130
I1
sS'retain'
p3131
I1
sS'vatina'
p3132
I2
sS'south'
p3133
I29
sS'tvseries'
p3134
I1
sS'io18extendedlk'
p3135
I7
sS'give2lanka'
p3136
I1
sS'third'
p3137
I5
sS'powerful'
p3138
I3
sS'reaches'
p3139
I1
sS'echo'
p3140
I1
sS'improving'
p3141
I1
sS'muhammad'
p3142
I1
sS'warcraft'
p3143
I3
sS'lagging'
p3144
I1
sS'owner'
p3145
I1
sS'reached'
p3146
I4
sS'quality'
p3147
I2
sS'straight'
p3148
I1
sS'pvt'
p3149
I1
sS'management'
p3150
I4
sS'cargills'
p3151
I1
sS'privacy'
p3152
I3
sS'festival'
p3153
I6
sS'system'
p3154
I4
sS'avengers'
p3155
I1
sS'priority'
p3156
I2
sS'their'
p3157
I26
sS'ankle'
p3158
I1
sS'perfectly'
p3159
I1
sS'tourists'
p3160
I2
sS'scans'
p3161
I1
sS'agility'
p3162
I1
sS'configure'
p3163
I1
sS'plcmore'
p3164
I1
sS'rachitha'
p3165
I1
sS'exactly'
p3166
I2
sS'marians'
p3167
I2
sS'too'
p3168
I4
sS'videogames'
p3169
I1
sS'mtunes'
p3170
I14
sS'july'
p3171
I8
sS'favortie'
p3172
I1
sS'ipad'
p3173
I2
sS'catered'
p3174
I2
sS'photograph'
p3175
I1
sS'ananthakumar'
p3176
I1
sS'ben'
p3177
I1
sS'fairfirst'
p3178
I2
sS'pointers'
p3179
I1
sS'cricinfo'
p3180
I11
sS'youtube'
p3181
I5
sS'bed'
p3182
I1
sS'whenever'
p3183
I1
sS'sweden'
p3184
I1
sS'loves'
p3185
I1
sS'providing'
p3186
I1
sS'actisms50'
p3187
I3
sS'nelsonmandeladay'
p3188
I1
sS'clip'
p3189
I3
sS'tabs'
p3190
I5
sS'reminders'
p3191
I2
sS'partnership'
p3192
I9
sS'avurudugames'
p3193
I1
sS'robot'
p3194
I1
sS'tonight'
p3195
I3
sS'screens.iphone'
p3196
I2
sS'buy'
p3197
I3
sS'ceylinco'
p3198
I2
sS'have'
p3199
I96
sS'need'
p3200
I19
sS'alexa'
p3201
I1
sS'turn'
p3202
I4
sS'demonstration'
p3203
I1
sS'clearly'
p3204
I3
sS'droid'
p3205
I1
sS'russians'
p3206
I1
sS'min'
p3207
I2
sS'mia'
p3208
I5
sS'mic'
p3209
I1
sS's8plus'
p3210
I1
sS'timemore'
p3211
I1
sS'purchasing'
p3212
I1
sS'makeover'
p3213
I1
sS'echannellingdial'
p3214
I2
sS'concerns'
p3215
I1
sS'bonanza'
p3216
I116
sS'which'
p3217
I20
sS'funds'
p3218
I4
sS'prisonbreak'
p3219
I1
sS'unity.eid'
p3220
I1
sS'rediscovered'
p3221
I1
sS'worldwide'
p3222
I1
sS'beyond'
p3223
I6
sS'agenda'
p3224
I1
sS'clash'
p3225
I1
sS'centre'
p3226
I1
sS'collaboration'
p3227
I2
sS'sl'
p3228
I12
sS'delayed'
p3229
I1
sS'said'
p3230
I2
sS'eight'
p3231
I1
sS'amongst'
p3232
I2
sS'buddika'
p3233
I1
sS'rollout'
p3234
I1
sS'romaing'
p3235
I1
sS'future'
p3236
I15
sS'medal'
p3237
I3
sS'payment'
p3238
I4
sS'mfacts'
p3239
I7
sS'inusha'
p3240
I1
sS'visiting'
p3241
I3
sS'upset'
p3242
I1
sS'disease'
p3243
I1
sS'mobitelonlinetalentstar'
p3244
I5
sS'face'
p3245
I4
sS'deactivate'
p3246
I8
sS'proceedings'
p3247
I4
sS'pictures'
p3248
I2
sS'uefa'
p3249
I2
sS'fact'
p3250
I6
sS'thilan'
p3251
I1
sS'emerging'
p3252
I1
sS'selection'
p3253
I1
sS'halftime'
p3254
I1
sS'chances'
p3255
I1
sS'text'
p3256
I3
sS'obageh'
p3257
I2
sS'obagen'
p3258
I1
sS'vacancy'
p3259
I1
sS'bring'
p3260
I2
sS'reference'
p3261
I1
sS'planning'
p3262
I2
sS'activate.more'
p3263
I7
sS'portfolio'
p3264
I1
sS'fear'
p3265
I7
sS'longer'
p3266
I2
sS'katukurandamore'
p3267
I1
sS'staff'
p3268
I1
sS'partners'
p3269
I16
sS'done'
p3270
I5
sS'rewarded.switch'
p3271
I1
sS'based'
p3272
I11
sS'knowledge'
p3273
I4
sS'mumbai'
p3274
I1
sS'gataluva'
p3275
I2
sS'waybackwednesday'
p3276
I18
sS'fans'
p3277
I4
sS'leuta'
p3278
I1
sS'should'
p3279
I14
sS'jan'
p3280
I2
sS'uninterrupted'
p3281
I1
sS'smallest'
p3282
I1
sS'tape'
p3283
I1
sS'combo'
p3284
I5
sS'fuel'
p3285
I4
sS'various'
p3286
I1
sS'islandwide'
p3287
I12
sS'hope'
p3288
I11
sS'photographs'
p3289
I1
sS'handle'
p3290
I1
sS'abba'
p3291
I1
sS'watching'
p3292
I3
sS'beat'
p3293
I5
sS'midnight'
p3294
I1
sS'photography'
p3295
I1
sS'unbeatable'
p3296
I1
sS'lucky'
p3297
I55
sS'bear'
p3298
I1
sS'tbh'
p3299
I1
sS'fraud'
p3300
I1
sS'redeem'
p3301
I1
sS'words'
p3302
I3
sS'consecutive'
p3303
I3
sS'kong'
p3304
I3
sS'endless'
p3305
I1
sS'todaycontact'
p3306
I2
sS'a80'
p3307
I1
sS'glory'
p3308
I3
sS'tobacco'
p3309
I1
sS'course'
p3310
I2
sS'denmark'
p3311
I1
sS'taxes'
p3312
I1
sS'tuned'
p3313
I8
sS'mobitelq8'
p3314
I1
sS'complianceif'
p3315
I1
sS'queries'
p3316
I2
sS'tunes'
p3317
I1
sS'mobitelq1'
p3318
I1
sS'grab'
p3319
I1
sS'fixed'
p3320
I1
sS'mobitelq4'
p3321
I1
sS'mobitelq5'
p3322
I1
sS'mobitelq6'
p3323
I1
sS'mobitelq7'
p3324
I1
sS'requirement'
p3325
I2
sS'official'
p3326
I6
sS'representative'
p3327
I1
sS'skiptrace'
p3328
I1
sS'national'
p3329
I12
sS'lanka.preorder'
p3330
I1
sS'edition'
p3331
I6
sS'legacy'
p3332
I1
sS'p20'
p3333
I1
sS'enhanced'
p3334
I2
sS'frederick'
p3335
I1
sS'samawenna'
p3336
I1
sS'month.for'
p3337
I1
sS'packed'
p3338
I2
sS'acquires'
p3339
I1
sS'closer'
p3340
I3
sS'weare25'
p3341
I3
sS'closet'
p3342
I1
sS'clearing'
p3343
I1
sS'initially'
p3344
I1
sS'state'
p3345
I7
sS'identification'
p3346
I1
sS'closed'
p3347
I3
sS'progress'
p3348
I5
sS'neither'
p3349
I1
sS'youll'
p3350
I2
sS'email'
p3351
I2
sS'nisala'
p3352
I1
sS'nutritious'
p3353
I1
sS'lankapay'
p3354
I1
sS'ends'
p3355
I2
sS'cristiano'
p3356
I1
sS'rotating'
p3357
I1
sS'lg'
p3358
I6
sS'importance'
p3359
I1
sS'yasintha'
p3360
I1
sS'tillakaratne'
p3361
I2
sS'hajj'
p3362
I5
sS'erandee'
p3363
I1
sS'job'
p3364
I8
sS'platform.to'
p3365
I1
sS'key'
p3366
I1
sS'demonstrate'
p3367
I1
sS'users'
p3368
I5
sS'jothi'
p3369
I1
sS'nominations'
p3370
I2
sS'apahasuthaavayanta'
p3371
I1
sS'atapattu'
p3372
I2
sS'weeks'
p3373
I1
sS'instant'
p3374
I6
sS'career'
p3375
I30
sS'joke'
p3376
I1
sS'taking'
p3377
I8
sS'antisocial'
p3378
I1
sS'tharindus'
p3379
I1
sS'newyearwishes'
p3380
I1
sS'drug'
p3381
I1
sS'sanduni'
p3382
I2
sS'postpaid'
p3383
I25
sS'april'
p3384
I2
sS'dissanayake'
p3385
I1
sS'succeed'
p3386
I2
sS'swim'
p3387
I1
sS'safely'
p3388
I1
sS'invites'
p3389
I7
sS'wear'
p3390
I1
sS'comment'
p3391
I7
sS'mticketing'
p3392
I39
sS'clamshell'
p3393
I1
sS'pasindu'
p3394
I1
sS'ajanthamendis'
p3395
I1
sS'speaker'
p3396
I2
sS'madushan'
p3397
I1
sS'supreme'
p3398
I1
sS'reborn'
p3399
I1
sS'subscribe'
p3400
I4
sS'madvertising'
p3401
I2
sS'startedmore'
p3402
I3
sS'supercross'
p3403
I3
sS'table'
p3404
I1
sS'allocated'
p3405
I1
sS'winning'
p3406
I18
sS'ramazan'
p3407
I9
sS'bbm'
p3408
I1
sS'yay'
p3409
I1
sS'sajini'
p3410
I2
sS'powered'
p3411
I9
sS'led'
p3412
I1
sS'cent'
p3413
I1
sS'quiz'
p3414
I51
sS'treat'
p3415
I1
sS'hawking'
p3416
I1
sS'qualify'
p3417
I3
sS'waste'
p3418
I1
sS'package.more'
p3419
I1
sS'yesterdays'
p3420
I1
sS'username'
p3421
I1
sS'shihana'
p3422
I1
sS'controlled'
p3423
I1
sS'commuter'
p3424
I1
sS'both'
p3425
I5
sS'telco'
p3426
I3
sS'library.more'
p3427
I1
sS'acef'
p3428
I1
sS'controller'
p3429
I1
sS'startupmore'
p3430
I1
sS'prescription'
p3431
I1
sS'manasick'
p3432
I11
sS'spain'
p3433
I2
sS'curated'
p3434
I3
sS'echanelling'
p3435
I2
sS'smartphones'
p3436
I19
sS'welcoming'
p3437
I1
sS'ramanayake'
p3438
I2
sS'value'
p3439
I17
sS'will'
p3440
I147
sS'entrepreneurial'
p3441
I1
sS'fingertip'
p3442
I1
sS'aya'
p3443
I2
sS'handwriting'
p3444
I1
sS'happened'
p3445
I1
sS'fridayeve'
p3446
I1
sS'midweek'
p3447
I1
sS'ringing'
p3448
I4
sS'almost'
p3449
I3
sS'linkedin'
p3450
I25
sS'softlogic'
p3451
I1
sS'vr'
p3452
I1
sS'consumes'
p3453
I2
sS'sherlock'
p3454
I1
sS'dual'
p3455
I1
sS'wasi'
p3456
I1
sS'arabia'
p3457
I1
sS'partner'
p3458
I12
sS'solutionsplease'
p3459
I1
sS'lankan'
p3460
I12
sS'productivity'
p3461
I1
sS'triathletes'
p3462
I1
sS'readying'
p3463
I1
sS'cross'
p3464
I2
sS'khan'
p3465
I1
sS'unity'
p3466
I4
sS'improves'
p3467
I1
sS'ziglar'
p3468
I1
sS'mobilephones'
p3469
I1
sS'smarter'
p3470
I1
sS'android'
p3471
I21
sS'fanatics'
p3472
I1
sS'lankas'
p3473
I16
sS'difficult'
p3474
I1
sS'hasitha'
p3475
I1
sS'heshitha'
p3476
I1
sS'infinity'
p3477
I1
sS'diego'
p3478
I1
sS'promo'
p3479
I1
sS'sachith'
p3480
I1
sS'pilibandava'
p3481
I2
sS'iot'
p3482
I2
sS'ios'
p3483
I12
sS'effect'
p3484
I1
sS'automation'
p3485
I1
sS'kulasekara'
p3486
I2
sS'worldmusicday2018'
p3487
I1
sS'sisters'
p3488
I2
sS'isco'
p3489
I1
sS'expand'
p3490
I1
sS'smarthome'
p3491
I2
sS'newweek'
p3492
I1
sS'transaction'
p3493
I1
sS'off'
p3494
I7
sS'center'
p3495
I2
sS'karana'
p3496
I2
sS'i'
p3497
I4
sS'thailand'
p3498
I1
sS'well'
p3499
I13
sS'unpacked'
p3500
I1
sS'thought'
p3501
I1
sS's20'
p3502
I1
sS'english'
p3503
I16
sS'audio'
p3504
I1
sS'contenders'
p3505
I1
sS'stores'
p3506
I3
sS'andriod'
p3507
I1
sS'less'
p3508
I9
sS'moments'
p3509
I4
sS'hybrid'
p3510
I1
sS'hands'
p3511
I7
sS'obtain'
p3512
I19
sS'streamer'
p3513
I1
sS'batteries'
p3514
I1
sS'nokia5'
p3515
I1
sS'enterprise'
p3516
I6
sS'skill'
p3517
I1
sS'commemoration'
p3518
I2
sS'unplugged'
p3519
I1
sS'web'
p3520
I9
sS'console'
p3521
I1
sS'ads'
p3522
I1
sS'wee'
p3523
I1
sS'softwaredriven'
p3524
I1
sS'allrounder'
p3525
I1
sS'capabilities'
p3526
I2
sS'day'
p3527
I120
sS'witana'
p3528
I10
sS'simple'
p3529
I4
sS'add'
p3530
I2
sS'book'
p3531
I10
sS'attractive'
p3532
I8
sS'ada'
p3533
I3
sS'usage'
p3534
I5
sS'smart'
p3535
I17
sS'fridaylicious'
p3536
I1
sS'details'
p3537
I88
sS'resolved'
p3538
I1
sS'advertising'
p3539
I1
sS'bandmore'
p3540
I10
sS'government'
p3541
I1
sS'checking'
p3542
I5
sS'howto'
p3543
I1
sS'effortless'
p3544
I1
sS'were'
p3545
I13
sS'five'
p3546
I1
sS'know'
p3547
I103
sS'facial'
p3548
I1
sS'deployment'
p3549
I1
sS'belgium'
p3550
I1
sS'immediately'
p3551
I1
sS'nokia6'
p3552
I1
sS'password'
p3553
I2
sS'nokia3'
p3554
I1
sS'loss'
p3555
I6
sS'displaced'
p3556
I1
sS'motorola'
p3557
I2
sS'necessary'
p3558
I2
sS'like'
p3559
I17
sS'ripmuhammadali'
p3560
I1
sS'athi'
p3561
I2
sS'hosts'
p3562
I3
sS'payments'
p3563
I6
sS'lose'
p3564
I1
sS'agents'
p3565
I4
sS'works'
p3566
I2
sS'page'
p3567
I16
sS'replacement'
p3568
I1
sS'accessible'
p3569
I1
sS'because'
p3570
I3
sS'infusing'
p3571
I1
sS'twitter'
p3572
I17
sS'tuesdaythoughts'
p3573
I1
sS'searching'
p3574
I1
sS'rafeek'
p3575
I1
sS'mosquitoes'
p3576
I1
sS'platforms'
p3577
I2
sS'anotherfirstinsouthasia'
p3578
I1
sS'growth'
p3579
I1
sS'export'
p3580
I1
sS'gananata'
p3581
I1
sS'datamartapp'
p3582
I1
sS'home'
p3583
I30
sS'gonna'
p3584
I1
sS'allinclusive'
p3585
I4
sS'happens'
p3586
I1
sS'montero'
p3587
I61
sS'maps.for'
p3588
I1
sS'bet'
p3589
I1
sS'lead'
p3590
I2
sS'demonstrates'
p3591
I1
sS'avoid'
p3592
I4
sS'thank'
p3593
I52
sS'airpods'
p3594
I1
sS'rewarding'
p3595
I1
sS'does'
p3596
I1
sS'passion'
p3597
I4
sS'mahanama'
p3598
I2
sS'leader'
p3599
I6
sS'demonstrated'
p3600
I1
sS'cricketwithmobitel'
p3601
I13
sS'observer'
p3602
I1
sS'noise'
p3603
I1
sS'schedule'
p3604
I18
sS'routers'
p3605
I4
sS'giveitaname'
p3606
I1
sS'host'
p3607
I2
sS'funfriday'
p3608
I1
sS'worthy'
p3609
I1
sS'ramazan.joining'
p3610
I1
sS'p30'
p3611
I3
sS'r'
p3612
I6
sS'is'
p3613
I196
sS'katukurunda'
p3614
I5
sS'stage'
p3615
I5
sS'channelling'
p3616
I1
sS'lifestyle'
p3617
I2
sS'solutions.providing'
p3618
I1
sS'ndb'
p3619
I1
sS'internhuman'
p3620
I1
sS'location'
p3621
I25
sS'recognized'
p3622
I2
sS'fup'
p3623
I6
sS'union'
p3624
I1
sS'blessings'
p3625
I4
sS'customizing'
p3626
I1
sS'desktop'
p3627
I1
sS'tgif'
p3628
I1
sS'peak'
p3629
I2
sS'own'
p3630
I7
sS'letters'
p3631
I3
sS'childrens'
p3632
I5
sS'rectify'
p3633
I1
sS'tight'
p3634
I1
sS'socks'
p3635
I1
sS'due'
p3636
I9
sS'weather'
p3637
I1
sS'champ'
p3638
I14
sS'female'
p3639
I2
sS'registration'
p3640
I1
sS'capable'
p3641
I1
sS'additions'
p3642
I1
sS'whos'
p3643
I1
sS'lightyears'
p3644
I1
sS'utility'
p3645
I1
sS'rejoice'
p3646
I1
sS'additional'
p3647
I4
sS'francis'
p3648
I1
sS'transfer'
p3649
I2
sS'rcv'
p3650
I1
sS'apps'
p3651
I3
sS'staymotivated'
p3652
I1
sS'zenfone'
p3653
I1
sS'awarded'
p3654
I9
sS'hakiyida'
p3655
I2
sS'uditha'
p3656
I2
sS'pool'
p3657
I1
sS'biggest'
p3658
I7
sS'vas'
p3659
I1
sS'lamborghinis'
p3660
I1
sS'inspiration'
p3661
I1
sS'globe'
p3662
I3
sS'hotspots'
p3663
I1
sS'ct17'
p3664
I13
sS'marked'
p3665
I1
sS'gurusinha'
p3666
I1
sS'north'
p3667
I1
sS'hr'
p3668
I4
sS'viaios'
p3669
I1
sS'brand'
p3670
I21
sS'but'
p3671
I9
sS'thailand.to'
p3672
I1
sS'delivery'
p3673
I3
sS'privilege'
p3674
I1
sS'sadahai'
p3675
I1
sS'hi'
p3676
I204
sS'goals'
p3677
I3
sS'kandy'
p3678
I3
sS'weerasinghe'
p3679
I1
sS'overflow'
p3680
I1
sS'brainteaser'
p3681
I8
sS'hd'
p3682
I2
sS'also'
p3683
I5
sS'made'
p3684
I14
sS'floodsl'
p3685
I2
sS'whether'
p3686
I1
sS'wish'
p3687
I7
sS'hardworkpaysoff'
p3688
I1
sS'smooth'
p3689
I1
sS'hosting'
p3690
I1
sS'r2d2'
p3691
I1
sS'excitement'
p3692
I4
sS'record'
p3693
I2
sS'below'
p3694
I49
sS'limit'
p3695
I1
sS'newlylaunched'
p3696
I1
sS'dhoni'
p3697
I1
sS'problem'
p3698
I11
sS'minutes'
p3699
I3
sS'display'
p3700
I1
sS'sanjaya'
p3701
I1
sS'newstart'
p3702
I1
sS'wifi'
p3703
I31
sS'xstation'
p3704
I16
sS'pin'
p3705
I3
sS'reservations'
p3706
I1
sS'pie'
p3707
I2
sS'shutting'
p3708
I1
sS'awaits'
p3709
I1
sS'internationalyogaday'
p3710
I1
sS'ironkids2018'
p3711
I1
sS'sneak'
p3712
I2
sS'match'
p3713
I28
sS'sinhala'
p3714
I5
sS'network.'
p3715
I1
sS'seneviratne'
p3716
I1
sS'cavalry'
p3717
I1
sS'complaint'
p3718
I9
sS'contest'
p3719
I4
sS'trials'
p3720
I1
sS'mlearning.applications'
p3721
I1
sS'virtual'
p3722
I4
sS'onwards'
p3723
I1
sS'distract'
p3724
I2
sS'boom'
p3725
I1
sS'branch'
p3726
I14
sS'finch'
p3727
I1
sS'u'
p3728
I1
sS'incredibly'
p3729
I2
sS'contacting'
p3730
I1
sS'repeat'
p3731
I1
sS'star'
p3732
I19
sS'monday'
p3733
I3
sS'mobitelsrilanka'
p3734
I50
sS'class'
p3735
I2
sS'm.s'
p3736
I1
sS'june'
p3737
I16
sS'outlets'
p3738
I1
sS'bundle'
p3739
I8
sS'stay'
p3740
I17
sS'chance'
p3741
I137
sS'mca'
p3742
I1
sS'gsma'
p3743
I1
sS'empowers'
p3744
I2
sS'opened'
p3745
I1
sS'hnb'
p3746
I1
sS'parttime'
p3747
I1
sS'lasith'
p3748
I3
sS'ranks'
p3749
I2
sS'resolution'
p3750
I2
sS'martin'
p3751
I3
sS'wastewater'
p3752
I1
sS'actisms70'
p3753
I3
sS'disappoint.click'
p3754
I1
sS'introduces'
p3755
I27
sS'fifamobile'
p3756
I2
sS'rural'
p3757
I1
sS'at'
p3758
I217
sS'argentinian'
p3759
I1
stp3760
Rp3761
.