cnltk.probability
FreqDist
p0
((dp1
S'aided'
p2
I1
sS'raining'
p3
I2
sS'todays'
p4
I3
sS'cobie'
p5
I1
sS'four'
p6
I1
sS'nerdyjokes'
p7
I1
sS'hanging'
p8
I1
sS'captain'
p9
I1
sS'selfdrivingcar'
p10
I1
sS'calculate'
p11
I1
sS'aug'
p12
I1
sS'slvspak'
p13
I17
sS'electricity'
p14
I1
sS'sweetest'
p15
I1
sS'unanswered'
p16
I1
sS'presents'
p17
I1
sS'fridaywisom'
p18
I1
sS'getnailed15'
p19
I3
sS'dengue'
p20
I1
sS'teaching'
p21
I1
sS'sorry'
p22
I26
sS'onstage'
p23
I7
sS'hats'
p24
I1
sS'nutricula'
p25
I1
sS'updated'
p26
I7
sS'rescue'
p27
I1
sS'activation'
p28
I1
sS'oceans'
p29
I1
sS'dell'
p30
I4
sS'muludiwainama'
p31
I1
sS'updates'
p32
I15
sS'innawa'
p33
I1
sS'bringing'
p34
I1
sS'lumia'
p35
I12
sS'cnet'
p36
I1
sS'ios10'
p37
I1
sS'samudra'
p38
I1
sS'prize'
p39
I5
sS'skills'
p40
I2
sS'sensor'
p41
I1
sS'solution'
p42
I5
sS'convenience'
p43
I3
sS'no.1'
p44
I1
sS'enhance'
p45
I2
sS'puttalam'
p46
I2
sS'ups'
p47
I1
sS'talentsearch'
p48
I1
sS'clothes'
p49
I1
sS'charter'
p50
I1
sS'force'
p51
I1
sS'warns'
p52
I1
sS'japanese'
p53
I2
sS'mahelajayawardene'
p54
I4
sS'second'
p55
I8
sS'usbc'
p56
I2
sS'saturdaynightcelebration'
p57
I1
sS'colourful'
p58
I1
sS'even'
p59
I9
sS'neo'
p60
I1
sS'errors'
p61
I1
sS'stalksandbabies'
p62
I1
sS'bittorrent'
p63
I1
sS'lookback'
p64
I1
sS'fingers'
p65
I1
sS'asia'
p66
I4
sS'lights'
p67
I1
sS'spousec'
p68
I1
sS'new'
p69
I147
sS'net'
p70
I4
sS'increasing'
p71
I1
sS'ever'
p72
I31
sS'succumb'
p73
I1
sS'shocks'
p74
I1
sS'hero'
p75
I2
sS'reporter'
p76
I1
sS'never'
p77
I12
sS'dory'
p78
I1
sS'here'
p79
I78
sS'met'
p80
I6
sS'feeding'
p81
I2
sS'china'
p82
I8
sS'ameliaearhart'
p83
I1
sS'active'
p84
I2
sS'mey'
p85
I1
sS'porche'
p86
I1
sS'dry'
p87
I2
sS'zuckerberg'
p88
I3
sS'kids'
p89
I4
sS'k'
p90
I1
sS'eligible'
p91
I4
sS'credit'
p92
I6
sS'udanaya'
p93
I1
sS'military'
p94
I1
sS'engineers'
p95
I2
sS'golden'
p96
I2
sS'fantastic'
p97
I7
sS'besides'
p98
I1
sS'explained'
p99
I2
sS'comingsoon'
p100
I1
sS'replace'
p101
I1
sS'brought'
p102
I1
sS'overheat'
p103
I1
sS'army'
p104
I5
sS'browse'
p105
I5
sS'lmd'
p106
I2
sS'occupying'
p107
I1
sS'leaks'
p108
I2
sS'thinnest'
p109
I3
sS'call'
p110
I47
sS'calm'
p111
I1
sS'recommend'
p112
I3
sS'strike'
p113
I2
sS'survive'
p114
I1
sS'type'
p115
I17
sS'tell'
p116
I30
sS'designbrand'
p117
I1
sS'posting'
p118
I1
sS'holy'
p119
I3
sS'relax'
p120
I1
sS'successful'
p121
I2
sS'brings'
p122
I2
sS'under'
p123
I2
sS'yahoo'
p124
I4
sS'huru'
p125
I1
sS'truecaller'
p126
I1
sS'warn'
p127
I1
sS'glass'
p128
I9
sS'zr'
p129
I1
sS'hole'
p130
I2
sS'hold'
p131
I3
sS'nintendoswitch'
p132
I1
sS'hoax'
p133
I1
sS'room'
p134
I2
sS'rights'
p135
I1
sS'movies'
p136
I15
sS'oled'
p137
I2
sS'bungalow'
p138
I1
sS'concepts'
p139
I1
sS'k900'
p140
I1
sS'example'
p141
I1
sS'kandalama'
p142
I1
sS'wana'
p143
I1
sS'foodie'
p144
I1
sS'finalists'
p145
I3
sS'give'
p146
I16
sS'organized'
p147
I5
sS'honey'
p148
I1
sS'currency'
p149
I1
sS'foods'
p150
I1
sS'want'
p151
I25
sS'bmich'
p152
I4
sS'reimagined'
p153
I1
sS'happyvalentinesday'
p154
I1
sS'provincial'
p155
I1
sS'xperiaz2'
p156
I1
sS'travel'
p157
I7
sS'feature'
p158
I16
sS'machine'
p159
I6
sS'how'
p160
I77
sS'amazing'
p161
I33
sS'answer'
p162
I16
sS'cheetah'
p163
I2
sS'aboard'
p164
I1
sS'gaming'
p165
I16
sS'commencing'
p166
I1
sS'regional'
p167
I1
sS'sajith'
p168
I1
sS'beauty'
p169
I6
sS'replacing'
p170
I1
sS'typec'
p171
I1
sS'wrong'
p172
I4
sS'asked'
p173
I2
sS'curiosity'
p174
I2
sS'president'
p175
I3
sS'types'
p176
I2
sS'purchase'
p177
I4
sS'third'
p178
I1
sS'wins'
p179
I2
sS'goodbye'
p180
I1
sS'thiru'
p181
I4
sS'operate'
p182
I2
sS'wind'
p183
I4
sS'fifa'
p184
I2
sS'feedback'
p185
I2
sS'deck'
p186
I1
sS'samsungs8'
p187
I2
sS'androido'
p188
I1
sS'keyboard'
p189
I2
sS'fellas'
p190
I1
sS'rewarded'
p191
I1
sS'aicentric'
p192
I2
sS'activating'
p193
I5
sS'before'
p194
I18
sS'uop'
p195
I1
sS'fit'
p196
I3
sS'personal'
p197
I1
sS'fractal'
p198
I1
sS'fix'
p199
I3
sS'better'
p200
I21
sS'wales'
p201
I1
sS'hidden'
p202
I5
sS'easier'
p203
I5
sS'thrones'
p204
I4
sS'vouchers'
p205
I29
sS'offroad'
p206
I1
sS'isef'
p207
I1
sS'destiny2'
p208
I2
sS'silver'
p209
I2
sS'rumour'
p210
I1
sS'bony'
p211
I1
sS'awarana'
p212
I2
sS'addicted'
p213
I2
sS'volcano'
p214
I1
sS'went'
p215
I4
sS'side'
p216
I3
sS'mean'
p217
I2
sS'directly'
p218
I1
sS'navi'
p219
I1
sS'series'
p220
I14
sS'allah'
p221
I2
sS'spider'
p222
I2
sS'wednesday'
p223
I3
sS'dawd'
p224
I1
sS'forgot'
p225
I1
sS'navy'
p226
I1
sS'dawn'
p227
I2
sS'message'
p228
I14
sS'arpico'
p229
I3
sS'hisa'
p230
I1
sS'realtime'
p231
I1
sS'tianjin'
p232
I1
sS'sms'
p233
I79
sS'tomorrow'
p234
I27
sS'content'
p235
I2
sS're'
p236
I1
sS'reader'
p237
I1
sS'surprise'
p238
I3
sS'millions'
p239
I2
sS'malinga'
p240
I1
sS'pumpkinc'
p241
I1
sS'telecommunication'
p242
I1
sS'cutest'
p243
I1
sS'siripaala'
p244
I1
sS'fave'
p245
I1
sS'sheer'
p246
I1
sS'paraceratherium'
p247
I1
sS'iss'
p248
I1
sS'starts'
p249
I5
sS'atm'
p250
I1
sS'messages'
p251
I11
sS'microchips'
p252
I1
sS'silicon'
p253
I2
sS'couldve'
p254
I2
sS'uses'
p255
I2
sS'no.8'
p256
I1
sS'messagec'
p257
I1
sS'speeds'
p258
I2
sS'features'
p259
I13
sS'channels'
p260
I1
sS'wash'
p261
I1
sS'bionic'
p262
I1
sS'facebookatwork'
p263
I1
sS'service'
p264
I19
sS'lego'
p265
I3
sS'engagement'
p266
I1
sS'tango'
p267
I1
sS'needed'
p268
I2
sS'master'
p269
I4
sS'listed'
p270
I1
sS'hollywood'
p271
I3
sS'ropeswing'
p272
I1
sS'ranging'
p273
I1
sS'listen'
p274
I5
sS'wisdom'
p275
I2
sS'tokens'
p276
I1
sS'rectified'
p277
I1
sS'superfetch'
p278
I1
sS'coverages'
p279
I1
sS'distance'
p280
I1
sS'trek'
p281
I1
sS'lenovo'
p282
I3
sS'fairytale'
p283
I1
sS'tree'
p284
I2
sS'project'
p285
I3
sS'matter'
p286
I6
sS'fabulous'
p287
I6
sS'silly'
p288
I1
sS'williams'
p289
I1
sS'feeling'
p290
I3
sS'mini'
p291
I2
sS'runner'
p292
I1
sS'boston'
p293
I1
sS'modern'
p294
I1
sS'mind'
p295
I8
sS'spectrum'
p296
I1
sS'mrrobot'
p297
I1
sS'lumia930'
p298
I1
sS'seen'
p299
I15
sS'seem'
p300
I1
sS'mins'
p301
I1
sS'dozen'
p302
I1
sS'escalator'
p303
I1
sS'rudolph'
p304
I1
sS'eagerly'
p305
I2
sS'chess'
p306
I1
sS'indrajith'
p307
I1
sS'rs.500'
p308
I2
sS'rangana'
p309
I1
sS'transactions'
p310
I1
sS'morefor'
p311
I2
sS'gallardo'
p312
I1
sS'memorabilia'
p313
I1
sS'mario'
p314
I6
sS'regular'
p315
I1
sS'addict'
p316
I1
sS'letter'
p317
I1
sS'entry'
p318
I1
sS'perera'
p319
I2
sS'macbook'
p320
I2
sS'singer'
p321
I3
sS'episode'
p322
I1
sS'fwdc'
p323
I1
sS'alarm'
p324
I1
sS'm'
p325
I1
sS'dog'
p326
I2
sS'colombotraffic'
p327
I1
sS'yurenis'
p328
I1
sS'definitely'
p329
I4
sS'tech'
p330
I94
sS'scream'
p331
I1
sS'dot'
p332
I2
sS'saying'
p333
I2
sS'hunger'
p334
I2
sS'insects'
p335
I1
sS'meetings'
p336
I1
sS'retire'
p337
I1
sS'nec'
p338
I2
sS'participate'
p339
I2
sS'sav001'
p340
I1
sS'busy'
p341
I6
sS'unleashes'
p342
I1
sS'menu'
p343
I2
sS'explain'
p344
I4
sS'rihanna'
p345
I1
sS'theme'
p346
I8
sS'folks'
p347
I9
sS'inventor'
p348
I1
sS'galaxys'
p349
I1
sS'wearing'
p350
I2
sS'honda'
p351
I1
sS'stop'
p352
I10
sS'coast'
p353
I2
sS'pocket'
p354
I6
sS'exchangerates'
p355
I1
sS'christopher'
p356
I1
sS'saturn'
p357
I2
sS'tips'
p358
I23
sS'bat'
p359
I2
sS'jaguar'
p360
I2
sS'bay'
p361
I1
sS'reload'
p362
I24
sS'bad'
p363
I3
sS'centigradz'
p364
I1
sS'release'
p365
I4
sS'mahinda'
p366
I1
sS'transistors'
p367
I1
sS'gotta'
p368
I5
sS'playstation'
p369
I2
sS'pokemongo'
p370
I4
sS'disaster'
p371
I1
sS'fascinating'
p372
I1
sS'testing'
p373
I8
sS'zones'
p374
I1
sS'decided'
p375
I5
sS'fail'
p376
I3
sS'startups'
p377
I2
sS'best'
p378
I43
sS'subject'
p379
I1
sS'brazil'
p380
I3
sS'dialup'
p381
I1
sS'ambitions'
p382
I1
sS'lots'
p383
I4
sS'bestinternet'
p384
I1
sS'wikipedia'
p385
I2
sS'artificial'
p386
I1
sS'dias'
p387
I1
sS'score'
p388
I7
sS'irl'
p389
I1
sS'pets'
p390
I1
sS'udaya'
p391
I2
sS'men'
p392
I1
sS'ganindu'
p393
I1
sS'nature'
p394
I8
sS'rolled'
p395
I2
sS'trekking'
p396
I1
sS'getnailed2016'
p397
I1
sS'mobileapps'
p398
I1
sS'harvard'
p399
I1
sS'uthama'
p400
I1
sS'cousin'
p401
I1
sS'accident'
p402
I2
sS'resistant'
p403
I1
sS'country'
p404
I9
sS'adventures'
p405
I1
sS'against'
p406
I2
sS'planned'
p407
I2
sS'pita'
p408
I1
sS'uni'
p409
I1
sS'voiceoverwifi'
p410
I1
sS'globalwarming'
p411
I2
sS'lookie'
p412
I1
sS'and'
p413
I504
sS'sai'
p414
I1
sS'height'
p415
I1
sS'awesomely'
p416
I1
sS'periscope'
p417
I2
sS'sirasa'
p418
I2
sS'pulul'
p419
I2
sS'asks'
p420
I1
sS'basis'
p421
I1
sS'chrome'
p422
I9
sS'three'
p423
I4
sS'frm'
p424
I3
sS'much'
p425
I17
sS'stadium'
p426
I1
sS'entered'
p427
I2
sS'lovely'
p428
I3
sS'tallest'
p429
I4
sS'idol'
p430
I1
sS'location'
p431
I3
sS'website'
p432
I5
sS'life'
p433
I21
sS'prosperous'
p434
I2
sS'worker'
p435
I1
sS'wish'
p436
I16
sS'maslowshierarchy'
p437
I1
sS'dota'
p438
I3
sS'child'
p439
I1
sS'spin'
p440
I1
sS'lionel'
p441
I1
sS'auroras'
p442
I1
sS'tank'
p443
I1
sS'slt'
p444
I3
sS'submissions'
p445
I2
sS'say'
p446
I15
sS'near'
p447
I6
sS'suppose'
p448
I1
sS'asanga'
p449
I1
sS'sambanda'
p450
I1
sS'balance'
p451
I2
sS'armband'
p452
I1
sS'study'
p453
I1
sS'remembering'
p454
I1
sS'janarth'
p455
I1
sS'sarcosuchus'
p456
I1
sS'played'
p457
I4
sS'iq'
p458
I2
sS'is'
p459
I426
sS'it'
p460
I193
sS'ii'
p461
I4
sS'player'
p462
I2
sS'cant'
p463
I14
sS'rhythmworld.lk'
p464
I1
sS'im'
p465
I7
sS'anticipating'
p466
I2
sS'in'
p467
I364
sS'mouse'
p468
I1
sS'id'
p469
I8
sS'if'
p470
I113
sS'grown'
p471
I2
sS'hong'
p472
I1
sS'thingy'
p473
I1
sS'bottles'
p474
I1
sS'things'
p475
I6
sS'make'
p476
I25
sS'bella'
p477
I1
sS'meetup'
p478
I1
sS'harmony'
p479
I1
sS'livevideo'
p480
I1
sS'olympics'
p481
I10
sS'yureninoshika'
p482
I1
sS'i1'
p483
I1
sS'obage'
p484
I8
sS'zeod'
p485
I1
sS'katukenda'
p486
I1
sS'kit'
p487
I1
sS'ownership'
p488
I1
sS'opportunity'
p489
I14
sS'tune'
p490
I48
sS'kid'
p491
I3
sS'ipadminib'
p492
I1
sS'mckellen'
p493
I1
sS'bhagya'
p494
I2
sS'programs'
p495
I1
sS'youre'
p496
I30
sS'slvpak'
p497
I4
sS'oneplus'
p498
I4
sS'corporate'
p499
I1
sS'yours'
p500
I4
sS'left'
p501
I7
sS'securifi'
p502
I1
sS'hutchsrilanka'
p503
I34
sS'just'
p504
I92
sS'bandwidth'
p505
I3
sS'human'
p506
I8
sS'facts'
p507
I3
sS'yep'
p508
I1
sS'yes'
p509
I21
sS'yet'
p510
I25
sS'previous'
p511
I1
sS'hai'
p512
I2
sS'candidate'
p513
I3
sS'infinitely'
p514
I1
sS'bns'
p515
I3
sS'had'
p516
I9
sS'spacecrafts'
p517
I1
sS'recreates'
p518
I1
sS'beloved'
p519
I1
sS'haq'
p520
I1
sS'whatsapp'
p521
I10
sS'has'
p522
I80
sS'hat'
p523
I1
sS'online'
p524
I20
sS'possible'
p525
I6
sS'auspicious'
p526
I3
sS'gameboy'
p527
I1
sS'switzeland'
p528
I1
sS'shadow'
p529
I2
sS'ranawana'
p530
I2
sS'dreams'
p531
I3
sS'desire'
p532
I1
sS'dignity'
p533
I1
sS'rhythmworldonstage'
p534
I3
sS'performing'
p535
I2
sS'sanathjayasuriya'
p536
I1
sS'festivities'
p537
I1
sS'steps'
p538
I1
sS'mifi'
p539
I1
sS'hambanthota'
p540
I1
sS'slvsa'
p541
I1
sS'battlefield'
p542
I1
sS'greenland'
p543
I2
sS'old'
p544
I13
sS'deal'
p545
I11
sS'people'
p546
I36
sS'toyota'
p547
I1
sS'topping'
p548
I1
sS'dead'
p549
I3
sS'melinagates'
p550
I1
sS'dear'
p551
I1
sS'for'
p552
I411
sS'notification'
p553
I1
sS'fox'
p554
I6
sS'daytime'
p555
I5
sS'creative'
p556
I8
sS'foe'
p557
I1
sS'tracker'
p558
I1
sS'umm'
p559
I1
sS'meanings'
p560
I2
sS'promos'
p561
I1
sS'bolt'
p562
I1
sS'losing'
p563
I1
sS'prashan'
p564
I1
sS'super'
p565
I18
sS'oreo'
p566
I2
sS'rs.1500'
p567
I1
sS'getnailed'
p568
I4
sS'valentines'
p569
I12
sS'o'
p570
I21
sS'afternoon'
p571
I2
sS'commit'
p572
I1
sS'hotly'
p573
I1
sS'thinner'
p574
I2
sS'whats'
p575
I15
sS'salaswanu'
p576
I1
sS'facility'
p577
I3
sS'EMO_NEG'
p578
I6
sS'selfie'
p579
I6
sS'combine'
p580
I1
sS'down'
p581
I9
sS'lies'
p582
I1
sS'sos'
p583
I1
sS'lieu'
p584
I1
sS'soon'
p585
I25
sS'shapechanging'
p586
I1
sS'east'
p587
I3
sS'fabric'
p588
I1
sS'support'
p589
I12
sS'flying'
p590
I4
sS'adara'
p591
I1
sS'joseph'
p592
I1
sS'greatness'
p593
I1
sS'music'
p594
I9
sS'happy'
p595
I25
sS'madushaniyou'
p596
I1
sS'offering'
p597
I2
sS'offer'
p598
I43
sS'batman'
p599
I3
sS'oneliner'
p600
I5
sS'landing'
p601
I2
sS'ford'
p602
I1
sS'talents'
p603
I1
sS'fastest'
p604
I5
sS'fort'
p605
I9
sS'upgrades'
p606
I1
sS'congratulations'
p607
I4
sS'bundled'
p608
I1
sS'pavilion'
p609
I1
sS'sermons'
p610
I2
sS'inside'
p611
I7
sS'devices'
p612
I3
sS'until'
p613
I5
sS'sapphire'
p614
I1
sS'panels'
p615
I1
sS'xwb'
p616
I1
sS'deviceb'
p617
I1
sS'passenger'
p618
I2
sS'shooter'
p619
I1
sS'proved'
p620
I1
sS'classic'
p621
I1
sS'toss'
p622
I2
sS'tournament'
p623
I1
sS'covers'
p624
I6
sS'sale'
p625
I2
sS'exist'
p626
I2
sS'elon'
p627
I1
sS'floating'
p628
I5
sS'mediapad'
p629
I1
sS'ericsson'
p630
I1
sS'angelomathews'
p631
I1
sS'hugsy'
p632
I21
sS'leep'
p633
I1
sS'floor'
p634
I2
sS'alerts'
p635
I35
sS'actor'
p636
I4
sS'digital'
p637
I8
sS'simdelivered'
p638
I2
sS'smell'
p639
I1
sS'roll'
p640
I1
sS'cortex'
p641
I1
sS'optically'
p642
I1
sS'intend'
p643
I2
sS'models'
p644
I1
sS'dies'
p645
I1
sS'felt'
p646
I1
sS'wars'
p647
I3
sS'journey'
p648
I1
sS'invested'
p649
I1
sS'rolling'
p650
I6
sS'neuroscience'
p651
I1
sS'hurt'
p652
I1
sS'weekend'
p653
I23
sS'gets'
p654
I7
sS'died'
p655
I1
sS'billion'
p656
I5
sS'happening'
p657
I10
sS'daily'
p658
I31
sS'gorilla'
p659
I1
sS'martinlawrence'
p660
I1
sS'time'
p661
I68
sS'rumiquotes'
p662
I1
sS'managed'
p663
I1
sS'ankaya'
p664
I5
sS'chain'
p665
I1
sS'activated'
p666
I5
sS'integration'
p667
I1
sS'crocodile'
p668
I1
sS'theaters'
p669
I1
sS'manages'
p670
I2
sS'skin'
p671
I1
sS'suicide'
p672
I2
sS'depend'
p673
I3
sS'randomactsofkindness'
p674
I1
sS'countdown'
p675
I1
sS'answered'
p676
I1
sS'finally'
p677
I9
sS'foursquare'
p678
I2
sS'durakathana'
p679
I4
sS'downloading'
p680
I9
sS'string'
p681
I2
sS'prepaid'
p682
I11
sS'billionaire'
p683
I1
sS'olympus'
p684
I3
sS'choice'
p685
I4
sS'gloomy'
p686
I2
sS'airfare'
p687
I2
sS'bartender'
p688
I1
sS'hutchconnect'
p689
I1
sS'minute'
p690
I4
sS'dio'
p691
I1
sS'nectar'
p692
I1
sS'speciale'
p693
I1
sS'excellency'
p694
I1
sS'die'
p695
I1
sS'maha'
p696
I1
sS'accidentally'
p697
I1
sS'bikers'
p698
I3
sS'spaces'
p699
I1
sS'diy'
p700
I1
sS'team'
p701
I21
sS'loads'
p702
I5
sS'batsmen'
p703
I1
sS'prevent'
p704
I2
sS'olympic'
p705
I5
sS'droid'
p706
I2
sS'prediction'
p707
I2
sS'kimkardashian'
p708
I1
sS'sign'
p709
I1
sS'targets'
p710
I1
sS'adds'
p711
I3
sS'heres'
p712
I23
sS'celebrated'
p713
I1
sS'melt'
p714
I2
sS'current'
p715
I1
sS'adaala'
p716
I1
sS'international'
p717
I10
sS'falling'
p718
I1
sS'selfdestructing'
p719
I1
sS'celebrates'
p720
I1
sS'transportation'
p721
I2
sS'ms'
p722
I1
sS'agreement'
p723
I1
sS'upgrade'
p724
I3
sS'address'
p725
I3
sS'alone'
p726
I1
sS'along'
p727
I17
sS'bugatti'
p728
I1
sS'box'
p729
I3
sS'streetview'
p730
I1
sS'maguire'
p731
I1
sS'brilliant'
p732
I6
sS'ezcash'
p733
I8
sS'studied'
p734
I1
sS'bot'
p735
I1
sS'commonly'
p736
I1
sS'sangakkara'
p737
I2
sS'whampoa'
p738
I1
sS'minecraft'
p739
I1
sS'reclaim'
p740
I1
sS'love'
p741
I35
sS'merely'
p742
I1
sS'prefer'
p743
I3
sS'ipl'
p744
I10
sS'hutchsurprises'
p745
I1
sS'verge'
p746
I1
sS'fake'
p747
I2
sS'hotels'
p748
I1
sS'everybody'
p749
I2
sS'working'
p750
I7
sS'positive'
p751
I1
sS'angry'
p752
I2
sS'visit'
p753
I34
sS'predictions'
p754
I3
sS'intense'
p755
I1
sS'teeth'
p756
I2
sS'checkout'
p757
I8
sS'aspirin'
p758
I1
sS'introducing'
p759
I1
sS'sharing'
p760
I4
sS'afford'
p761
I2
sS'laughs'
p762
I1
sS'validity'
p763
I2
sS'visual'
p764
I1
sS'everywhere'
p765
I1
sS'zoomable'
p766
I1
sS'earthhoursrilanka'
p767
I1
sS'pinstep'
p768
I1
sS'effort'
p769
I2
sS'behalf'
p770
I1
sS'fly'
p771
I1
sS'ironmans'
p772
I1
sS'indies'
p773
I2
sS'reviews'
p774
I1
sS'wallet'
p775
I2
sS'printing'
p776
I2
sS'values'
p777
I1
sS'following'
p778
I19
sS'making'
p779
I7
sS'arrive'
p780
I3
sS'claim'
p781
I2
sS'crazy'
p782
I8
sS'plaza'
p783
I2
sS'predict'
p784
I2
sS'awesome'
p785
I25
sS'council'
p786
I1
sS'allowed'
p787
I1
sS'nerdland'
p788
I2
sS'dennis'
p789
I1
sS'behindthescenes'
p790
I1
sS's8'
p791
I7
sS'winter'
p792
I1
sS's3'
p793
I7
sS's2'
p794
I1
sS's7'
p795
I1
sS's6'
p796
I3
sS's5'
p797
I3
sS's4'
p798
I3
sS'till'
p799
I15
sS'sunday'
p800
I18
sS'query'
p801
I1
sS'fbcamapp'
p802
I1
sS'nyc'
p803
I1
sS'pathway'
p804
I1
sS'map'
p805
I11
sS'staying'
p806
I3
sS'mung'
p807
I1
sS'may'
p808
I26
sS'max'
p809
I1
sS'spot'
p810
I3
sS'applications'
p811
I1
sS'mac'
p812
I3
sS'designed'
p813
I1
sS'date'
p814
I7
sS'such'
p815
I4
sS'kaluaggala'
p816
I1
sS'data'
p817
I115
sS'mal'
p818
I2
sS'man'
p819
I19
sS'supersonic'
p820
I1
sS'stress'
p821
I1
sS'omen'
p822
I1
sS'oculus'
p823
I4
sS'philschiller'
p824
I1
sS'wheelchair'
p825
I1
sS'sp'
p826
I2
sS'borrowing'
p827
I1
sS'thorne'
p828
I1
sS'tale'
p829
I1
sS'switch'
p830
I8
sS'so'
p831
I62
sS'sl'
p832
I10
sS'sc'
p833
I1
sS'sb'
p834
I1
sS'sa'
p835
I2
sS'pulled'
p836
I1
sS'talk'
p837
I9
sS'sd'
p838
I2
sS'cute'
p839
I1
sS'shield'
p840
I2
sS'webpage'
p841
I1
sS'wishing'
p842
I3
sS'kong'
p843
I2
sS'course'
p844
I2
sS'squadra'
p845
I1
sS'shake'
p846
I3
sS'avid'
p847
I1
sS'battlefield1'
p848
I2
sS'group'
p849
I2
sS'thank'
p850
I33
sS'interesting'
p851
I13
sS'hot'
p852
I5
sS'packsbetween'
p853
I1
sS'tweety'
p854
I1
sS'dwarfs'
p855
I1
sS'thanx'
p856
I3
sS'tweets'
p857
I8
sS'mail'
p858
I4
sS'main'
p859
I3
sS'into'
p860
I29
sS'thanq'
p861
I2
sS'matches'
p862
I11
sS'smarter'
p863
I2
sS'killer'
p864
I1
sS'sooner'
p865
I1
sS'indigenous'
p866
I1
sS'viewd'
p867
I1
sS'begun.'
p868
I1
sS'touching'
p869
I1
sS'subscribers'
p870
I3
sS'sorted'
p871
I1
sS'tomcruise'
p872
I1
sS'killed'
p873
I1
sS'htcvr'
p874
I1
sS'slpl'
p875
I5
sS'settings'
p876
I1
sS'revert'
p877
I1
sS'jellyfish'
p878
I1
sS'rock'
p879
I1
sS'showcasing'
p880
I1
sS'inspirationalquotes'
p881
I5
sS'corner.what'
p882
I1
sS'prisma'
p883
I1
sS'honduras'
p884
I1
sS'pawathina'
p885
I1
sS'malaysian'
p886
I1
sS'refreshcolombo'
p887
I1
sS'tinkerbots'
p888
I1
sS'breakthrough'
p889
I1
sS'blanks'
p890
I2
sS'sponsor'
p891
I8
sS'fingertips'
p892
I3
sS'girl'
p893
I1
sS'relive'
p894
I1
sS'living'
p895
I2
sS'jackson'
p896
I2
sS'eidmubarak'
p897
I2
sS'dinum'
p898
I22
sS'multiplayer'
p899
I1
sS'sujeev'
p900
I1
sS'emerged'
p901
I1
sS'internet'
p902
I50
sS'formula'
p903
I1
sS'dota2championships'
p904
I1
sS'correct'
p905
I1
sS'humpday'
p906
I3
sS'earlier'
p907
I2
sS'monster'
p908
I1
sS'impressed'
p909
I1
sS'million'
p910
I9
sS'possibility'
p911
I1
sS'quite'
p912
I2
sS'rs.175'
p913
I1
sS'california'
p914
I1
sS'musing'
p915
I1
sS'hspa'
p916
I1
sS'training'
p917
I2
sS'carnival'
p918
I1
sS'rule'
p919
I1
sS'today.retweet'
p920
I1
sS'headphones'
p921
I3
sS'yesb'
p922
I1
sS'thing'
p923
I11
sS'greatbarrierreef'
p924
I1
sS'massive'
p925
I4
sS'router'
p926
I2
sS'star'
p927
I13
sS'think'
p928
I44
sS'first'
p929
I55
sS'chogm'
p930
I1
sS'tangalle'
p931
I1
sS'saving'
p932
I1
sS'potter'
p933
I1
sS'one'
p934
I106
sS'lyfieeye'
p935
I1
sS'long'
p936
I9
sS'avantha'
p937
I1
sS'vote'
p938
I4
sS'sounds'
p939
I2
sS'open'
p940
I4
sS'cancercure'
p941
I1
sS'city'
p942
I9
sS'little'
p943
I4
sS'anyone'
p944
I21
sS'timings'
p945
I1
sS'emmawatsonspeech'
p946
I1
sS'irajs'
p947
I1
sS'participated'
p948
I1
sS'speaking'
p949
I1
sS'meme'
p950
I1
sS'eyes'
p951
I4
sS'mema'
p952
I2
sS'activity'
p953
I2
sS'allegedly'
p954
I1
sS'suit'
p955
I7
sS'snatch'
p956
I1
sS'atthe'
p957
I1
sS'commercialpassenger'
p958
I1
sS'nuwan'
p959
I1
sS'royal'
p960
I1
sS'effective'
p961
I1
sS'rival'
p962
I2
sS'quantum'
p963
I4
sS'typography'
p964
I1
sS'future'
p965
I17
sS'were'
p966
I21
sS'chocolatefestival'
p967
I1
sS'russia'
p968
I2
sS'gathering'
p969
I2
sS'turned'
p970
I1
sS'locations'
p971
I1
sS'sad'
p972
I3
sS'dash'
p973
I1
sS'spender'
p974
I1
sS'etisalat'
p975
I3
sS'saw'
p976
I5
sS'surgery'
p977
I2
sS'voicec'
p978
I1
sS'hotspot'
p979
I1
sS'note'
p980
I27
sS'potential'
p981
I1
sS'adala'
p982
I1
sS'take'
p983
I36
sS'performance'
p984
I3
sS'personalized'
p985
I1
sS'pranks'
p986
I1
sS'channel'
p987
I9
sS'embilipitiya'
p988
I1
sS'normal'
p989
I2
sS'track'
p990
I3
sS'knew'
p991
I1
sS'paid'
p992
I12
sS'truelove'
p993
I1
sS'assault'
p994
I1
sS'printed'
p995
I1
sS'sunglass'
p996
I1
sS'pair'
p997
I5
sS'knee'
p998
I1
sS'pages'
p999
I3
sS'nethi'
p1000
I1
sS'vishwa'
p1001
I2
sS'especially'
p1002
I1
sS'socool'
p1003
I1
sS'drive'
p1004
I4
sS'ways'
p1005
I4
sS'lowering'
p1006
I1
sS'digitalwallet'
p1007
I1
sS'shop'
p1008
I8
sS'walking'
p1009
I2
sS'shot'
p1010
I3
sS'elaz'
p1011
I2
sS'show'
p1012
I9
sS'energyefficient'
p1013
I1
sS'bright'
p1014
I3
sS'nakath'
p1015
I1
sS'corner'
p1016
I3
sS'imagined'
p1017
I1
sS'curled'
p1018
I1
sS'mubarak'
p1019
I3
sS'behind'
p1020
I2
sS'welcomed'
p1021
I1
sS'going'
p1022
I17
sS'black'
p1023
I9
sS'girlfriendb'
p1024
I1
sS'esala'
p1025
I3
sS'focussimilar'
p1026
I1
sS'ranking'
p1027
I2
sS'muni'
p1028
I1
sS'get'
p1029
I171
sS'assistant'
p1030
I2
sS'moons'
p1031
I1
sS'countered'
p1032
I1
sS'invisibleman'
p1033
I1
sS'nearly'
p1034
I1
sS'gee'
p1035
I2
sS'hohoho'
p1036
I1
sS'lankans'
p1037
I2
sS'partnered'
p1038
I1
sS'artist'
p1039
I3
sS'busiest'
p1040
I1
sS'nameoperating'
p1041
I1
sS'celebrate'
p1042
I7
sS'teddies'
p1043
I1
sS'morning'
p1044
I47
sS'medias'
p1045
I1
sS'miles'
p1046
I1
sS'worries'
p1047
I1
sS'account.for'
p1048
I1
sS'where'
p1049
I18
sS'vision'
p1050
I1
sS'wiki'
p1051
I1
sS'declared'
p1052
I1
sS'seat'
p1053
I1
sS'srilankavictory'
p1054
I1
sS'sean'
p1055
I1
sS'captions'
p1056
I1
sS'calendar'
p1057
I1
sS'ur'
p1058
I5
sS'sandaha'
p1059
I2
sS'parent'
p1060
I1
sS'registering'
p1061
I5
sS'jumped'
p1062
I1
sS'monalisa'
p1063
I1
sS'boundaries'
p1064
I1
sS'enough'
p1065
I7
sS'gaga'
p1066
I1
sS'himashini'
p1067
I2
sS'iphone6launch'
p1068
I7
sS'geometric'
p1069
I1
sS'reading'
p1070
I4
sS'inorder'
p1071
I1
sS'across'
p1072
I2
sS'affordable'
p1073
I4
sS'jobs'
p1074
I1
sS'august'
p1075
I3
sS'vertical'
p1076
I1
sS'replacement'
p1077
I1
sS'spartan'
p1078
I1
sS'killing'
p1079
I1
sS'cosplays'
p1080
I1
sS'awards'
p1081
I1
sS'jets'
p1082
I1
sS'azkerm'
p1083
I1
sS'z'
p1084
I1
sS'rugby'
p1085
I4
sS'astrologer'
p1086
I1
sS'jenniferlawrence'
p1087
I1
sS'many'
p1088
I30
sS'resist'
p1089
I1
sS'according'
p1090
I3
sS'tour'
p1091
I13
sS'spare'
p1092
I1
sS'holders'
p1093
I2
sS'expression'
p1094
I1
sS'backpack'
p1095
I1
sS'mann'
p1096
I1
sS'yearly'
p1097
I1
sS'among'
p1098
I3
sS'cancer'
p1099
I1
sS'hurts'
p1100
I2
sS'daham'
p1101
I1
sS'innovations'
p1102
I1
sS'cutebutdangerous'
p1103
I1
sS'comeback'
p1104
I1
sS'extinct'
p1105
I1
sS'boat'
p1106
I1
sS'math'
p1107
I2
sS'caring'
p1108
I1
sS'capable'
p1109
I1
sS'encryption'
p1110
I2
sS'apage'
p1111
I2
sS'mark'
p1112
I2
sS'maru'
p1113
I1
sS'bucketlist'
p1114
I1
sS'mars'
p1115
I17
sS'borders'
p1116
I1
sS'prototype'
p1117
I2
sS'wants'
p1118
I2
sS'laptopb'
p1119
I2
sS'shopping'
p1120
I9
sS'offered'
p1121
I2
sS'laptops'
p1122
I2
sS'photos'
p1123
I22
sS'observe'
p1124
I1
sS'wake'
p1125
I2
sS'bmw'
p1126
I1
sS'hashtag'
p1127
I10
sS'installation'
p1128
I1
sS'former'
p1129
I1
sS'those'
p1130
I9
sS'sound'
p1131
I1
sS'turtles'
p1132
I1
sS'bootable'
p1133
I1
sS'htwap'
p1134
I1
sS'gamesc'
p1135
I1
sS'promising'
p1136
I2
sS'newspaper'
p1137
I1
sS'situation'
p1138
I4
sS'ausvsl'
p1139
I1
sS'thatll'
p1140
I1
sS'lodziak'
p1141
I1
sS'internets'
p1142
I2
sS'coffee'
p1143
I8
sS'dedicate'
p1144
I2
sS'starfriends'
p1145
I20
sS'middle'
p1146
I6
sS'loosing'
p1147
I1
sS'nation'
p1148
I1
sS'casings'
p1149
I1
sS'technology'
p1150
I6
sS'hutchdigitallitha'
p1151
I1
sS'different'
p1152
I1
sS'hungerfact'
p1153
I2
sS'doctor'
p1154
I1
sS'pay'
p1155
I12
sS'sama'
p1156
I1
sS's'
p1157
I1
sS'same'
p1158
I12
sS'speech'
p1159
I1
sS'pak'
p1160
I1
sS'mons'
p1161
I1
sS'breakdown'
p1162
I1
sS'oil'
p1163
I1
sS'singapore'
p1164
I4
sS'assist'
p1165
I10
sS'cheers'
p1166
I3
sS'mxene'
p1167
I1
sS'edges'
p1168
I1
sS'etron'
p1169
I1
sS'hsdpa'
p1170
I1
sS'totally'
p1171
I1
sS'renewable'
p1172
I4
sS'worldfoodday'
p1173
I4
sS'costs'
p1174
I1
sS'solve'
p1175
I2
sS'bottle'
p1176
I1
sS'genie'
p1177
I3
sS'scholarship'
p1178
I1
sS'gates'
p1179
I1
sS'f35b'
p1180
I1
sS'rooting'
p1181
I1
sS'being'
p1182
I12
sS'money'
p1183
I6
sS'slime'
p1184
I1
sS'rest'
p1185
I3
sS'tasmanian'
p1186
I1
sS'ranasinghe'
p1187
I1
sS'guys'
p1188
I14
sS'savetheplanet'
p1189
I1
sS'rover'
p1190
I5
sS'motivationalquotes'
p1191
I5
sS'application'
p1192
I2
sS'extensive'
p1193
I1
sS'grip'
p1194
I2
sS'around'
p1195
I16
sS'dark'
p1196
I8
sS'grid'
p1197
I1
sS'mom'
p1198
I4
sS'dravids'
p1199
I1
sS'unesco'
p1200
I1
sS'naval'
p1201
I1
sS'apple'
p1202
I37
sS'intel'
p1203
I3
sS'stranger'
p1204
I1
sS'enriques'
p1205
I1
sS'maintained'
p1206
I1
sS'lightning'
p1207
I2
sS'rigmarole'
p1208
I1
sS'audience'
p1209
I1
sS'miraculous'
p1210
I1
sS'either'
p1211
I3
sS'retailers'
p1212
I1
sS'adama'
p1213
I1
sS'hutch_srilanka'
p1214
I1
sS'inter'
p1215
I1
sS'queues'
p1216
I1
sS'auditorium'
p1217
I1
sS'prabhash'
p1218
I1
sS'ascend'
p1219
I3
sS'muddled'
p1220
I1
sS'tvs'
p1221
I2
sS'chayarupayak'
p1222
I1
sS'noshika'
p1223
I2
sS'specified'
p1224
I1
sS'images'
p1225
I8
sS'gameofthrones'
p1226
I3
sS'noon'
p1227
I1
sS'critical'
p1228
I1
sS'happened'
p1229
I6
sS'inhabited'
p1230
I1
sS'dongles'
p1231
I18
sS'londons'
p1232
I1
sS'accessing'
p1233
I1
sS'transformers'
p1234
I2
sS'power'
p1235
I4
sS'selfdriving'
p1236
I5
sS'fitness'
p1237
I5
sS'iconic'
p1238
I1
sS'iconia'
p1239
I1
sS'trials'
p1240
I2
sS'roaming'
p1241
I4
sS'manufacturer'
p1242
I1
sS'halloweenparty'
p1243
I1
sS'hutchavurudu'
p1244
I9
sS'package'
p1245
I19
sS'swarms'
p1246
I2
sS'industry'
p1247
I1
sS'favorite'
p1248
I44
sS'meal'
p1249
I1
sS'fifa2014'
p1250
I3
sS'youve'
p1251
I8
sS'win10'
p1252
I1
sS'bond'
p1253
I2
sS'road'
p1254
I6
sS'quietly'
p1255
I1
sS'marshmallow'
p1256
I2
sS'image'
p1257
I11
sS'kalin'
p1258
I1
sS'blessed'
p1259
I3
sS'legged'
p1260
I1
sS'wadi'
p1261
I1
sS'moped'
p1262
I2
sS'dreaming'
p1263
I1
sS'conanobrien'
p1264
I1
sS'aido'
p1265
I1
sS'wildfire'
p1266
I1
sS'her'
p1267
I4
sS'hes'
p1268
I2
sS'wesak2015'
p1269
I1
sS'hey'
p1270
I3
sS'hadunwadimataya.rs'
p1271
I1
sS'decode'
p1272
I1
sS'ahameds'
p1273
I1
sS'mondays'
p1274
I1
sS'chats'
p1275
I2
sS'media'
p1276
I11
sS'spicy'
p1277
I4
sS'complete'
p1278
I3
sS'woudl'
p1279
I1
sS'maldives'
p1280
I2
sS'survived'
p1281
I1
sS'corse'
p1282
I1
sS'technologies'
p1283
I2
sS'with'
p1284
I353
sS'buying'
p1285
I3
sS'spice'
p1286
I1
sS'october'
p1287
I2
sS'romantic'
p1288
I2
sS'rage'
p1289
I1
sS'danaganima'
p1290
I1
sS'practically'
p1291
I1
sS'unveils'
p1292
I5
sS'peeking'
p1293
I1
sS'organize'
p1294
I1
sS'agree'
p1295
I13
sS'acescoders'
p1296
I1
sS'gone'
p1297
I1
sS'leaked'
p1298
I4
sS'ad'
p1299
I4
sS'johnny'
p1300
I1
sS'ai'
p1301
I16
sS'certain'
p1302
I3
sS'slardar'
p1303
I1
sS'censor'
p1304
I1
sS'al'
p1305
I1
sS'deep'
p1306
I3
sS'sampath'
p1307
I3
sS'substantially'
p1308
I1
sS'as'
p1309
I92
sS'ar'
p1310
I1
sS'at'
p1311
I210
sS'planets'
p1312
I3
sS'walks'
p1313
I1
sS'girlfriend'
p1314
I1
sS'lifetime'
p1315
I2
sS'crease'
p1316
I2
sS'film'
p1317
I5
sS'fill'
p1318
I3
sS'sgnl'
p1319
I1
sS'again'
p1320
I18
sS'yoga'
p1321
I1
sS'personnel'
p1322
I2
sS'drivers'
p1323
I1
sS'kalapaya'
p1324
I1
sS'field'
p1325
I2
sS'astronaut'
p1326
I2
sS'someones'
p1327
I1
sS'heats'
p1328
I1
sS'manamali'
p1329
I2
sS'thousand'
p1330
I1
sS'ultrapowerful'
p1331
I1
sS'students'
p1332
I3
sS'reached'
p1333
I2
sS'gifts'
p1334
I9
sS'important'
p1335
I4
sS'shivaratri'
p1336
I1
sS'brands'
p1337
I2
sS'decorated'
p1338
I1
sS'natalie'
p1339
I1
sS'remote'
p1340
I3
sS'tricks'
p1341
I4
sS'rs'
p1342
I77
sS'blackholes'
p1343
I1
sS'having'
p1344
I8
sS'groot'
p1345
I2
sS'u'
p1346
I20
sS'god'
p1347
I1
sS'starting'
p1348
I4
sS'cpu'
p1349
I2
sS'shazam'
p1350
I2
sS'forget'
p1351
I11
sS'founder'
p1352
I1
sS'caused'
p1353
I10
sS'dollar'
p1354
I1
sS'dynatac'
p1355
I1
sS'fairness'
p1356
I1
sS'talks'
p1357
I3
sS'funkilicious'
p1358
I2
sS'expressions'
p1359
I1
sS'liam'
p1360
I2
sS'children'
p1361
I1
sS'emily'
p1362
I1
sS'tv'
p1363
I21
sS'taio'
p1364
I1
sS'tail'
p1365
I1
sS'tm'
p1366
I1
sS'highquality'
p1367
I1
sS'preserved'
p1368
I1
sS'smile'
p1369
I2
sS'enjoying'
p1370
I7
sS'mandela'
p1371
I1
sS'case'
p1372
I3
sS'sitting'
p1373
I2
sS'checkin'
p1374
I1
sS'rc'
p1375
I1
sS'myself'
p1376
I1
sS'elonmusk'
p1377
I2
sS'condition'
p1378
I1
sS'cheerful'
p1379
I1
sS'mothers'
p1380
I9
sS'poya'
p1381
I5
sS'celebrity'
p1382
I3
sS'misinformation'
p1383
I1
sS'roadster'
p1384
I2
sS'dongle'
p1385
I14
sS'simcompatibility'
p1386
I1
sS'large'
p1387
I8
sS'these'
p1388
I67
sS'harry'
p1389
I1
sS'small'
p1390
I3
sS'mammal'
p1391
I1
sS'gb'
p1392
I8
sS'mile'
p1393
I1
sS'sync'
p1394
I1
sS'past'
p1395
I4
sS'go'
p1396
I42
sS'pass'
p1397
I3
sS'further'
p1398
I4
sS'trick'
p1399
I1
sS'dial'
p1400
I48
sS'sheshadrie'
p1401
I1
sS'clock'
p1402
I2
sS'section'
p1403
I1
sS'scientists'
p1404
I3
sS'tribute'
p1405
I1
sS'rajapaksa'
p1406
I1
sS'schumacher'
p1407
I1
sS'full'
p1408
I10
sS'hash'
p1409
I1
sS'hours'
p1410
I7
sS'bloggers'
p1411
I4
sS'operating'
p1412
I4
sS'november'
p1413
I5
sS'legend'
p1414
I4
sS'ingame'
p1415
I1
sS'speeches'
p1416
I1
sS'bible'
p1417
I1
sS'showrooms'
p1418
I1
sS'experience'
p1419
I11
sS'emulator'
p1420
I1
sS'milky'
p1421
I1
sS'action'
p1422
I16
sS'luck'
p1423
I8
sS'cx75'
p1424
I1
sS'saturdayhappiness'
p1425
I1
sS'via'
p1426
I15
sS'buses'
p1427
I1
sS'vii'
p1428
I1
sS'vin'
p1429
I1
sS'regiment'
p1430
I2
sS'extinction'
p1431
I1
sS'select'
p1432
I9
sS'silva'
p1433
I2
sS'ntb'
p1434
I2
sS'eye'
p1435
I6
sS'grroovvy'
p1436
I1
sS'texting'
p1437
I1
sS'two'
p1438
I13
sS'archives'
p1439
I1
sS'gorgeous'
p1440
I8
sS'more'
p1441
I86
sS'galaxys8'
p1442
I2
sS'starfreinds'
p1443
I2
sS'company'
p1444
I3
sS'hutch.lk'
p1445
I1
sS'galaxys7'
p1446
I1
sS'tested'
p1447
I1
sS'oxytocin'
p1448
I1
sS'none'
p1449
I1
sS'hour'
p1450
I4
sS'davinci'
p1451
I1
sS'science'
p1452
I9
sS'installing'
p1453
I1
sS'indiavssl'
p1454
I1
sS'evolved'
p1455
I1
sS'learn'
p1456
I3
sS'kaluthara'
p1457
I1
sS'mediums'
p1458
I1
sS'dee'
p1459
I1
sS'beautiful'
p1460
I11
sS'shark'
p1461
I3
sS'ritual'
p1462
I1
sS'r8'
p1463
I1
sS'share'
p1464
I14
sS'states'
p1465
I1
sS'confirmation'
p1466
I1
sS'numbers'
p1467
I3
sS'sense'
p1468
I1
sS'garden'
p1469
I1
sS'huge'
p1470
I1
sS'needs'
p1471
I5
sS'awkward'
p1472
I2
sS'explorefeed'
p1473
I1
sS'smsc'
p1474
I1
sS'acts'
p1475
I1
sS'dismissed'
p1476
I1
sS'everyday'
p1477
I1
sS'maps'
p1478
I7
sS'dota2'
p1479
I3
sS'clink'
p1480
I1
sS'csr'
p1481
I1
sS'upto'
p1482
I1
sS'plant'
p1483
I1
sS'plans'
p1484
I21
sS'owadan'
p1485
I1
sS'ninjaother'
p1486
I1
sS'coolgadgets'
p1487
I1
sS'connectivity'
p1488
I4
sS'plane'
p1489
I8
sS'blood'
p1490
I2
sS'coming'
p1491
I13
sS'ampara'
p1492
I1
sS'eeta'
p1493
I1
sS'lanka'
p1494
I67
sS'response'
p1495
I1
sS'bleak'
p1496
I1
sS'messaged'
p1497
I1
sS'ransomwarewannacry'
p1498
I1
sS'tweeting'
p1499
I2
sS'ryzen'
p1500
I1
sS'hanwella'
p1501
I1
sS'broadcasting'
p1502
I1
sS'srilanka'
p1503
I11
sS'pleasure'
p1504
I2
sS'geographic'
p1505
I1
sS'playing'
p1506
I4
sS'replied'
p1507
I3
sS'vantablack'
p1508
I1
sS'kushan'
p1509
I1
sS'heartfelt'
p1510
I2
sS'attitude'
p1511
I1
sS'paper'
p1512
I4
sS'through'
p1513
I17
sS'filters'
p1514
I1
sS'replies'
p1515
I1
sS'existence'
p1516
I2
sS'suffer'
p1517
I1
sS'its'
p1518
I100
sS'astrology'
p1519
I1
sS'controllable'
p1520
I1
sS'thrilling'
p1521
I2
sS'allo'
p1522
I6
sS'pcs'
p1523
I1
sS'pariksha'
p1524
I1
sS'handheld'
p1525
I1
sS'late'
p1526
I9
sS'detected'
p1527
I1
sS'bummer'
p1528
I1
sS'followers'
p1529
I2
sS'focussed'
p1530
I1
sS'odis'
p1531
I2
sS'someone'
p1532
I13
sS'seeking'
p1533
I1
sS'gadget'
p1534
I5
sS'sappers'
p1535
I3
sS'foxhill'
p1536
I1
sS'snowball'
p1537
I1
sS'womensday'
p1538
I1
sS'oxford'
p1539
I4
sS'hearing'
p1540
I1
sS'association'
p1541
I1
sS'armys'
p1542
I1
sS'mystery'
p1543
I1
sS'easily'
p1544
I4
sS'emojis'
p1545
I1
sS'beesvomit'
p1546
I1
sS'always'
p1547
I7
sS'robbin'
p1548
I1
sS'micro'
p1549
I3
sS'habits'
p1550
I2
sS'soya'
p1551
I1
sS'ezetop'
p1552
I2
sS'knight'
p1553
I3
sS'found'
p1554
I6
sS'button'
p1555
I3
sS'week'
p1556
I34
sS'everyone'
p1557
I31
sS'england'
p1558
I1
sS'mums'
p1559
I1
sS'sangamaiya'
p1560
I2
sS'fish'
p1561
I4
sS'hard'
p1562
I2
sS'reduce'
p1563
I3
sS'monks'
p1564
I1
sS'bendy'
p1565
I1
sS'katrina'
p1566
I1
sS'connect'
p1567
I5
sS'kajan'
p1568
I2
sS'yousuf'
p1569
I1
sS'blues'
p1570
I5
sS'really'
p1571
I8
sS'lovers'
p1572
I1
sS'funding'
p1573
I2
sS'missed'
p1574
I10
sS'welisara'
p1575
I1
sS'exams'
p1576
I1
sS'lionsroar'
p1577
I3
sS'print'
p1578
I2
sS'offline'
p1579
I1
sS'belief'
p1580
I1
sS'atms'
p1581
I1
sS'pleasant'
p1582
I1
sS'extraordinary'
p1583
I2
sS'toy'
p1584
I1
sS'giveaway'
p1585
I10
sS'members'
p1586
I1
sS'imagine'
p1587
I2
sS'firstever'
p1588
I1
sS'beginning'
p1589
I5
sS'obesity'
p1590
I1
sS'bumped'
p1591
I1
sS'owners'
p1592
I1
sS'benefits'
p1593
I2
sS'eclipselunar'
p1594
I1
sS'terroist'
p1595
I1
sS'computers'
p1596
I5
sS'running'
p1597
I8
sS'guinness'
p1598
I1
sS'conducted'
p1599
I2
sS'unmanned'
p1600
I2
sS'sanaths'
p1601
I1
sS'pilots'
p1602
I1
sS'n00b'
p1603
I2
sS'virtualreality'
p1604
I6
sS'radeon'
p1605
I1
sS'major'
p1606
I1
sS'dont'
p1607
I39
sS'contender'
p1608
I1
sS'number'
p1609
I77
sS'valentine'
p1610
I4
sS'tedx'
p1611
I1
sS'done'
p1612
I9
sS'vesak'
p1613
I15
sS'cups'
p1614
I1
sS'guess'
p1615
I12
sS'heads'
p1616
I1
sS'jet'
p1617
I1
sS'introduction'
p1618
I1
sS'revive'
p1619
I1
sS'least'
p1620
I1
sS'spock'
p1621
I1
sS'saint'
p1622
I1
sS'christned'
p1623
I1
sS'tunes.dial'
p1624
I1
sS'sympathies'
p1625
I1
sS'relationship'
p1626
I1
sS'appreciation'
p1627
I1
sS'part'
p1628
I24
sS'doctors'
p1629
I1
sS'focusing'
p1630
I1
sS'raspberrypizero'
p1631
I1
sS'believe'
p1632
I3
sS'stairs'
p1633
I1
sS'b'
p1634
I2
sS'x51'
p1635
I1
sS'condolences'
p1636
I1
sS'tummy'
p1637
I1
sS'supposed'
p1638
I1
sS'obahata'
p1639
I1
sS'remembers'
p1640
I1
sS'interactive'
p1641
I3
sS'rosettas'
p1642
I1
sS'ages'
p1643
I1
sS'antarctica'
p1644
I1
sS'pantech'
p1645
I1
sS'sell'
p1646
I2
sS'mountain'
p1647
I2
sS'built'
p1648
I2
sS'self'
p1649
I1
sS'h20'
p1650
I1
sS'client'
p1651
I1
sS'also'
p1652
I10
sS'recognizing'
p1653
I1
sS'build'
p1654
I5
sS'blizzards'
p1655
I1
sS'transparent'
p1656
I2
sS'province'
p1657
I3
sS'play'
p1658
I17
sS'animallover'
p1659
I1
sS'unused'
p1660
I2
sS'most'
p1661
I43
sS'exoskeletons'
p1662
I1
sS'nasas'
p1663
I1
sS'plan'
p1664
I3
sS'significant'
p1665
I1
sS'services'
p1666
I6
sS'accepting'
p1667
I1
sS'extremely'
p1668
I3
sS'funnies'
p1669
I1
sS'packs.1.5gb'
p1670
I1
sS'nimbuzz'
p1671
I5
sS'puja'
p1672
I1
sS'sometimes'
p1673
I1
sS'cover'
p1674
I8
sS'pic'
p1675
I3
sS'microsoft'
p1676
I15
sS'hamabanthota'
p1677
I1
sS'thomas'
p1678
I2
sS'mortalkombat'
p1679
I3
sS'gold'
p1680
I10
sS'pethum'
p1681
I1
sS'dilshan'
p1682
I1
sS'session'
p1683
I4
sS'entity'
p1684
I1
sS'defender'
p1685
I1
sS'fine'
p1686
I2
sS'networks'
p1687
I3
sS'access'
p1688
I7
sS'giant'
p1689
I3
sS'huawei'
p1690
I9
sS'merger'
p1691
I1
sS'worthy'
p1692
I2
sS'failed'
p1693
I1
sS'captures'
p1694
I1
sS'ultron'
p1695
I1
sS'slvapak'
p1696
I2
sS'merged'
p1697
I1
sS'loved'
p1698
I11
sS'giants'
p1699
I1
sS'begins'
p1700
I3
sS'weve'
p1701
I6
sS'paperweight'
p1702
I1
sS'hutchmoms'
p1703
I1
sS'anxiety'
p1704
I1
sS'actress'
p1705
I2
sS'childrensday'
p1706
I5
sS'merchandise'
p1707
I4
sS'redefines'
p1708
I1
sS'sthg'
p1709
I1
sS'banking'
p1710
I3
sS'common'
p1711
I1
sS'river'
p1712
I1
sS'rumored'
p1713
I2
sS'insane'
p1714
I4
sS'set'
p1715
I16
sS'haraha'
p1716
I1
sS'sep'
p1717
I1
sS'enabled'
p1718
I1
sS'insano'
p1719
I1
sS'vine'
p1720
I7
sS'deactivation'
p1721
I1
sS'see'
p1722
I45
sS'sea'
p1723
I1
sS'retweet'
p1724
I12
sS'analog'
p1725
I1
sS'preparation'
p1726
I1
sS'visiting'
p1727
I2
sS'movie'
p1728
I83
sS'positivity'
p1729
I2
sS'currently'
p1730
I7
sS'please'
p1731
I58
sS'heading'
p1732
I1
sS'fans'
p1733
I32
sS'captured'
p1734
I1
sS'ozo'
p1735
I1
sS'readme'
p1736
I3
sS'moving'
p1737
I1
sS'weekly'
p1738
I3
sS'nope'
p1739
I1
sS'monsters'
p1740
I1
sS'available'
p1741
I18
sS'behappy'
p1742
I1
sS'javascript'
p1743
I1
sS'aircraft'
p1744
I5
sS'interface'
p1745
I4
sS'alters'
p1746
I1
sS'floats'
p1747
I1
sS'mahela'
p1748
I4
sS'ecuador'
p1749
I1
sS'last'
p1750
I24
sS'sultan'
p1751
I1
sS'solely'
p1752
I1
sS'annual'
p1753
I1
sS'thor'
p1754
I1
sS'connection'
p1755
I8
sS'let'
p1756
I35
sS'whole'
p1757
I2
sS'upgraded'
p1758
I3
sS'yureni'
p1759
I3
sS'bell'
p1760
I2
sS'simple'
p1761
I3
sS'loan'
p1762
I1
sS'lovefromhutch'
p1763
I1
sS'community'
p1764
I2
sS'rofl'
p1765
I1
sS'simply'
p1766
I16
sS'shutdown'
p1767
I1
sS'chirrping'
p1768
I1
sS'platinum'
p1769
I1
sS'dansal'
p1770
I1
sS'publishing'
p1771
I1
sS'monthly'
p1772
I2
sS'create'
p1773
I7
sS'rs.1990'
p1774
I4
sS'creativity'
p1775
I1
sS'n00balliance'
p1776
I2
sS'suburbs'
p1777
I1
sS'secret'
p1778
I3
sS'dropping'
p1779
I1
sS'meeting'
p1780
I1
sS'champion'
p1781
I2
sS'funs'
p1782
I2
sS'fire'
p1783
I3
sS'honorary'
p1784
I1
sS'gal'
p1785
I1
sS'awake'
p1786
I1
sS'sajjads'
p1787
I1
sS'prices'
p1788
I1
sS'fur'
p1789
I2
sS'smsing'
p1790
I1
sS'solid'
p1791
I1
sS'straight'
p1792
I1
sS'bill'
p1793
I9
sS'budget'
p1794
I2
sS'forgetting'
p1795
I1
sS'reliably'
p1796
I1
sS'error'
p1797
I2
sS'fun'
p1798
I29
sS'properly'
p1799
I1
sS'larger'
p1800
I3
sS'hoping'
p1801
I1
sS'portugal'
p1802
I1
sS'century'
p1803
I3
sS'cents'
p1804
I1
sS'orca'
p1805
I1
sS'moto'
p1806
I2
sS'itself'
p1807
I1
sS'kotturoti'
p1808
I1
sS'limit'
p1809
I3
sS'audi'
p1810
I1
sS'funny'
p1811
I11
sS'italy'
p1812
I1
sS'the18th'
p1813
I1
sS'elevated'
p1814
I1
sS'ray'
p1815
I2
sS'neutron'
p1816
I1
sS'passwords'
p1817
I2
sS'sujanichanaka'
p1818
I1
sS'comprehensive'
p1819
I2
sS'yesterday'
p1820
I9
sS'alert'
p1821
I1
sS'moment'
p1822
I8
sS'levels'
p1823
I2
sS'gihan'
p1824
I1
sS'aggregate'
p1825
I1
sS'recent'
p1826
I1
sS'kasthuriarachchi'
p1827
I1
sS'early'
p1828
I5
sS'spent'
p1829
I4
sS'person'
p1830
I19
sS'thoroughly'
p1831
I1
sS'y'
p1832
I8
sS'csrproject'
p1833
I1
sS'chemistry'
p1834
I1
sS'spend'
p1835
I4
sS'aurah20'
p1836
I1
sS'sims'
p1837
I4
sS'rs.100'
p1838
I9
sS'internationalbookfair'
p1839
I1
sS'dalada'
p1840
I1
sS'shape'
p1841
I3
sS'sira'
p1842
I1
sS'using'
p1843
I18
sS'turnbyturn'
p1844
I1
sS'alternative'
p1845
I1
sS'wearable'
p1846
I1
sS'streetart'
p1847
I1
sS'letting'
p1848
I2
sS'srilankacricketteam'
p1849
I1
sS'parentd'
p1850
I1
sS'parentc'
p1851
I1
sS'cup'
p1852
I9
sS'surprises'
p1853
I5
sS'orbs'
p1854
I1
sS'alternate'
p1855
I11
sS'source'
p1856
I1
sS'parents'
p1857
I2
sS'kites'
p1858
I1
sS'sydney'
p1859
I1
sS'nowork'
p1860
I1
sS'easter'
p1861
I4
sS'excited'
p1862
I17
sS'surprised'
p1863
I1
sS'ridiculously'
p1864
I2
sS'bil'
p1865
I1
sS'australia'
p1866
I4
sS'victims'
p1867
I1
sS'emergency'
p1868
I2
sS'format'
p1869
I1
sS'big'
p1870
I12
sS'couple'
p1871
I6
sS'matters'
p1872
I2
sS'suffering'
p1873
I1
sS'cuteness'
p1874
I1
sS'bit'
p1875
I2
sS'richie'
p1876
I1
sS'd'
p1877
I61
sS'follows'
p1878
I1
sS'chorus'
p1879
I1
sS'continue'
p1880
I3
sS'stylish'
p1881
I1
sS'google'
p1882
I64
sS'often'
p1883
I1
sS'absolutely'
p1884
I4
sS'abundantly'
p1885
I1
sS'back'
p1886
I45
sS'bounce'
p1887
I1
sS'ah'
p1888
I1
sS'martian'
p1889
I1
sS'theamazingspiderman'
p1890
I1
sS'huaweimedia'
p1891
I1
sS'hutchmeetup'
p1892
I19
sS'broadband'
p1893
I2
sS'decision'
p1894
I1
sS'tharindu'
p1895
I1
sS'per'
p1896
I6
sS'wiz'
p1897
I1
sS'pen'
p1898
I1
sS'connecting'
p1899
I1
sS'eliminate'
p1900
I1
sS'dating'
p1901
I1
sS'temple'
p1902
I1
sS'nose'
p1903
I1
sS'digitized'
p1904
I1
sS'be'
p1905
I174
sS'object'
p1906
I1
sS'patient'
p1907
I2
sS'bb'
p1908
I1
sS'word'
p1909
I4
sS'bn'
p1910
I1
sS'costumes'
p1911
I2
sS'needforspeed'
p1912
I1
sS'voiceoverlte'
p1913
I1
sS'electoral'
p1914
I1
sS'bq'
p1915
I1
sS'santa'
p1916
I3
sS'lounger'
p1917
I1
sS'carbide'
p1918
I1
sS'tower'
p1919
I1
sS'fifaworldcup'
p1920
I6
sS'wildlife'
p1921
I2
sS'goods'
p1922
I1
sS'nationalgeographic'
p1923
I1
sS'anything'
p1924
I7
sS'netflix'
p1925
I2
sS'samsungxces2016'
p1926
I1
sS'drama'
p1927
I1
sS'deserves'
p1928
I2
sS'pollution'
p1929
I1
sS'usbdongle'
p1930
I1
sS'intl'
p1931
I1
sS'diwali'
p1932
I2
sS'retailer'
p1933
I1
sS'awaited'
p1934
I4
sS'phase'
p1935
I1
sS'sisira'
p1936
I1
sS'frames'
p1937
I1
sS'highres'
p1938
I1
sS'a113'
p1939
I1
sS'coin'
p1940
I1
sS'few'
p1941
I10
sS'spending'
p1942
I3
sS'apparently'
p1943
I2
sS'sock'
p1944
I1
sS'submit'
p1945
I2
sS'litha'
p1946
I1
sS'forward'
p1947
I9
sS'contentment'
p1948
I1
sS'bored'
p1949
I2
sS'nougat'
p1950
I2
sS'opens'
p1951
I1
sS'blueprint'
p1952
I1
sS'cagills'
p1953
I1
sS'an'
p1954
I94
sS'inches'
p1955
I1
sS'relaxed'
p1956
I1
sS'tally'
p1957
I1
sS'boys'
p1958
I1
sS'dansala'
p1959
I6
sS'link'
p1960
I19
sS'competition'
p1961
I21
sS'atom'
p1962
I1
sS'hopes'
p1963
I1
sS'line'
p1964
I11
sS'posted'
p1965
I13
sS'biggie'
p1966
I1
sS'mavericks'
p1967
I1
sS'redeemed'
p1968
I1
sS'up'
p1969
I64
sS'us'
p1970
I153
sS'erica'
p1971
I1
sS'planet'
p1972
I8
sS'ul'
p1973
I1
sS'un'
p1974
I2
sS'uk'
p1975
I1
sS'continuously'
p1976
I1
sS'ud'
p1977
I1
sS'aerial'
p1978
I2
sS'armstrong'
p1979
I1
sS'expedition'
p1980
I1
sS'metal'
p1981
I1
sS'beckoning'
p1982
I1
sS'influence'
p1983
I2
sS'revealed'
p1984
I1
sS'single'
p1985
I2
sS'chat'
p1986
I6
sS'cafe'
p1987
I1
sS'phantom'
p1988
I2
sS'codes'
p1989
I1
sS'noka'
p1990
I1
sS'plugged'
p1991
I2
sS'videostory'
p1992
I1
sS'actors'
p1993
I1
sS'revision'
p1994
I1
sS'brushing'
p1995
I1
sS'elements'
p1996
I1
sS'favourite'
p1997
I10
sS'gopro'
p1998
I1
sS'robots'
p1999
I7
sS'prepared'
p2000
I1
sS'lens'
p2001
I1
sS'darkknightrises'
p2002
I1
sS'desert'
p2003
I2
sS'ago'
p2004
I5
sS'land'
p2005
I2
sS'fighter'
p2006
I2
sS'age'
p2007
I3
sS'callofduty'
p2008
I2
sS'walked'
p2009
I1
sS'annoyed'
p2010
I1
sS'summit'
p2011
I4
sS'rallies'
p2012
I1
sS'walker'
p2013
I1
sS'fresh'
p2014
I1
sS'hello'
p2015
I55
sS'code'
p2016
I9
sS'results'
p2017
I8
sS'astronauts'
p2018
I2
sS'highways'
p2019
I1
sS'gossip'
p2020
I1
sS'amypoehler'
p2021
I1
sS'glows'
p2022
I1
sS'bixby'
p2023
I4
sS'young'
p2024
I2
sS'send'
p2025
I23
sS'herath'
p2026
I1
sS'dislike'
p2027
I1
sS'fatal'
p2028
I1
sS'sent'
p2029
I4
sS'provides'
p2030
I2
sS'unbeaten'
p2031
I1
sS'putting'
p2032
I2
sS'surgeon'
p2033
I1
sS'ending'
p2034
I8
sS'clement'
p2035
I1
sS'entire'
p2036
I5
sS'magic'
p2037
I1
sS'portability'
p2038
I1
sS'experiencing'
p2039
I1
sS'try'
p2040
I23
sS'threat'
p2041
I2
sS'race'
p2042
I3
sS'havent'
p2043
I4
sS'comicon'
p2044
I1
sS'weekend.now'
p2045
I1
sS'solutions'
p2046
I2
sS'copter'
p2047
I1
sS'odi'
p2048
I4
sS'biomaterial'
p2049
I1
sS'classneverretires'
p2050
I1
sS'video'
p2051
I33
sS'dynamics'
p2052
I1
sS'rs.20'
p2053
I1
sS'giving'
p2054
I7
sS'rukh'
p2055
I2
sS'taylorswift'
p2056
I1
sS'waverider'
p2057
I1
sS'seconds'
p2058
I3
sS'twins'
p2059
I1
sS'bird'
p2060
I5
sS'exercise'
p2061
I1
sS'body'
p2062
I3
sS'led'
p2063
I1
sS'lee'
p2064
I1
sS'exchange'
p2065
I1
sS'gathered'
p2066
I1
sS'bodu'
p2067
I2
sS'punch'
p2068
I1
sS'delivering'
p2069
I1
sS'objects'
p2070
I1
sS'deathdefying'
p2071
I1
sS'ubuntu'
p2072
I1
sS'resemblance'
p2073
I2
sS'grandfinale'
p2074
I2
sS'issuing'
p2075
I1
sS'great'
p2076
I37
sS'casing'
p2077
I2
sS'talent'
p2078
I1
sS'villain'
p2079
I1
sS'technical'
p2080
I1
sS'titanic'
p2081
I2
sS'survey'
p2082
I1
sS'defeat'
p2083
I1
sS'opinion'
p2084
I5
sS'proof'
p2085
I2
sS'makes'
p2086
I5
sS'maker'
p2087
I1
sS'involves'
p2088
I1
sS'thats'
p2089
I32
sS'named'
p2090
I1
sS'panicked'
p2091
I1
sS'firefox'
p2092
I3
sS'telecom'
p2093
I2
sS'siri'
p2094
I3
sS'talos'
p2095
I1
sS'baskets'
p2096
I1
sS'chrismartin'
p2097
I1
sS'names'
p2098
I1
sS'tools'
p2099
I1
sS'staple'
p2100
I1
sS'homepod'
p2101
I1
sS'flat'
p2102
I2
sS'next'
p2103
I24
sS'bethi'
p2104
I1
sS'doubt'
p2105
I1
sS'themselves'
p2106
I1
sS'emmawatson'
p2107
I2
sS'screening'
p2108
I2
sS'upcoming'
p2109
I9
sS'snap'
p2110
I1
sS'tax'
p2111
I4
sS'reloads'
p2112
I5
sS'opposing'
p2113
I1
sS'prizes'
p2114
I9
sS'baby'
p2115
I1
sS'minions'
p2116
I2
sS'customer'
p2117
I10
sS'account'
p2118
I3
sS'balls'
p2119
I3
sS'animals'
p2120
I1
sS'britney'
p2121
I1
sS'this'
p2122
I347
sS'challenge'
p2123
I7
sS'hopkins'
p2124
I1
sS'echanneling'
p2125
I1
sS'temparatures'
p2126
I1
sS'prompts'
p2127
I1
sS'aquaman'
p2128
I5
sS'island'
p2129
I5
sS'pulling'
p2130
I1
sS'kandos'
p2131
I1
sS'didnt'
p2132
I3
sS'mobilepayment'
p2133
I1
sS'streamed'
p2134
I3
sS'process'
p2135
I9
sS'lock'
p2136
I1
sS'lekhasingh'
p2137
I1
sS'slim'
p2138
I1
sS'high'
p2139
I7
sS'billcosby'
p2140
I1
sS'slip'
p2141
I2
sS'stories'
p2142
I7
sS'paws'
p2143
I1
sS'panono'
p2144
I1
sS'timetables'
p2145
I1
sS'holds'
p2146
I3
sS'delay'
p2147
I7
sS'winners'
p2148
I41
sS'forest'
p2149
I1
sS'animal'
p2150
I1
sS'comedy'
p2151
I1
sS'intelligent'
p2152
I1
sS'greatly'
p2153
I1
sS'newhorizon'
p2154
I1
sS'hesitate'
p2155
I1
sS'specifications'
p2156
I2
sS'waters'
p2157
I1
sS'await'
p2158
I1
sS'dominos'
p2159
I1
sS'ow'
p2160
I1
sS'preferred'
p2161
I3
sS'fits'
p2162
I1
sS'aluth'
p2163
I4
sS'referring'
p2164
I1
sS'efficiently'
p2165
I1
sS'boeing'
p2166
I2
sS'lakbima'
p2167
I2
sS'sit'
p2168
I1
sS'lines'
p2169
I1
sS'robot'
p2170
I13
sS'processor'
p2171
I2
sS'amazongo'
p2172
I1
sS'furious'
p2173
I2
sS'looking'
p2174
I12
sS'counted'
p2175
I1
sS'antelope'
p2176
I1
sS'endoscopy'
p2177
I1
sS'mute'
p2178
I1
sS'despite'
p2179
I3
sS'researching'
p2180
I1
sS'meter'
p2181
I1
sS'motorcycle'
p2182
I1
sS'galaxy'
p2183
I61
sS'bunch'
p2184
I3
sS'perfect'
p2185
I7
sS'bridges'
p2186
I1
sS'ld'
p2187
I1
sS'le'
p2188
I1
sS'climatechange'
p2189
I2
sS'burning'
p2190
I1
sS'tweeps'
p2191
I12
sS'lk'
p2192
I7
sS'hutchisonsrilanka'
p2193
I1
sS'meantime'
p2194
I1
sS'lp'
p2195
I1
sS'dad'
p2196
I1
sS'risesat'
p2197
I1
sS'entrace'
p2198
I1
sS'peraliperali'
p2199
I1
sS'dock'
p2200
I1
sS'snake'
p2201
I2
sS'legendary'
p2202
I3
sS'bar'
p2203
I1
sS'kindness'
p2204
I1
sS'realize'
p2205
I1
sS'straddling'
p2206
I1
sS'stunts'
p2207
I1
sS'february'
p2208
I2
sS'airports'
p2209
I1
sS'thrill'
p2210
I1
sS'cmbuxcon'
p2211
I1
sS'nanayakkara'
p2212
I1
sS'covering'
p2213
I1
sS'blazing'
p2214
I3
sS'reloading'
p2215
I2
sS'merge'
p2216
I1
sS'hagfish'
p2217
I2
sS'truth'
p2218
I1
sS'scorch'
p2219
I1
sS'inbox'
p2220
I16
sS'anshayanta'
p2221
I1
sS'activate'
p2222
I35
sS'doing'
p2223
I9
sS'books'
p2224
I1
sS'earthporn'
p2225
I1
sS'salakanna'
p2226
I1
sS'popping'
p2227
I1
sS'huch'
p2228
I1
sS'matrix'
p2229
I2
sS'bag'
p2230
I2
sS'announces'
p2231
I3
sS'defend'
p2232
I2
sS'valve'
p2233
I1
sS'mate'
p2234
I1
sS'messenger'
p2235
I13
sS'hilarious'
p2236
I3
sS'dawned'
p2237
I1
sS'reg'
p2238
I9
sS'red'
p2239
I9
sS'trappist1'
p2240
I1
sS'midweekmadness'
p2241
I3
sS'frank'
p2242
I1
sS'approaches'
p2243
I1
sS'surely'
p2244
I1
sS'regulatory'
p2245
I1
sS'bleed'
p2246
I1
sS'livestreaming'
p2247
I1
sS'scary'
p2248
I1
sS'rs.15'
p2249
I1
sS'gifting'
p2250
I1
sS'dinaganna'
p2251
I1
sS'keells'
p2252
I8
sS'chilly'
p2253
I1
sS'length'
p2254
I1
sS'dota2international'
p2255
I6
sS'chills'
p2256
I1
sS'nowontap'
p2257
I1
sS'blown'
p2258
I1
sS'scene'
p2259
I3
sS'owned'
p2260
I3
sS'owner'
p2261
I1
sS'leasing'
p2262
I1
sS'rajapaksha'
p2263
I1
sS'reliable'
p2264
I1
sS's3c'
p2265
I2
sS'prank'
p2266
I2
sS'pakistans'
p2267
I1
sS'ancient'
p2268
I1
sS'fair'
p2269
I1
sS'ordering'
p2270
I1
sS'newyear2018'
p2271
I2
sS'system'
p2272
I13
sS'regurgitate'
p2273
I1
sS'lions'
p2274
I8
sS'jumpforjoy'
p2275
I1
sS'scans'
p2276
I1
sS'stars'
p2277
I8
sS'eavesdrop'
p2278
I1
sS'seymour'
p2279
I1
sS'acquire'
p2280
I1
sS'unsubscribe'
p2281
I1
sS'elite'
p2282
I1
sS'argob'
p2283
I1
sS'steel'
p2284
I4
sS'lightening'
p2285
I3
sS'glamorous'
p2286
I1
sS'slack'
p2287
I2
sS'mbps'
p2288
I3
sS'giphy'
p2289
I2
sS'loves'
p2290
I4
sS'fengshui'
p2291
I1
sS'partnership'
p2292
I6
sS'tonight'
p2293
I3
sS'have'
p2294
I149
sS'habitable'
p2295
I1
sS'danuwtah'
p2296
I1
sS'curved'
p2297
I4
sS'handsets'
p2298
I1
sS'viewed'
p2299
I1
sS'dishes'
p2300
I1
sS'min'
p2301
I1
sS'mic'
p2302
I1
sS'mid'
p2303
I2
sS'incorporating'
p2304
I1
sS'endofweekend'
p2305
I1
sS'cwc15'
p2306
I8
sS'soar'
p2307
I1
sS'worldwide'
p2308
I1
sS'theshallows'
p2309
I1
sS'useful'
p2310
I2
sS'courtesy'
p2311
I1
sS'said'
p2312
I4
sS'eight'
p2313
I1
sS'kitkat'
p2314
I2
sS'handbag'
p2315
I1
sS'comparison'
p2316
I3
sS'payment'
p2317
I2
sS'jaan'
p2318
I2
sS'z30'
p2319
I1
sS'angelomatthews'
p2320
I1
sS'request'
p2321
I4
sS'disease'
p2322
I2
sS'nerdgasm'
p2323
I1
sS'occasion'
p2324
I1
sS'painting'
p2325
I2
sS'fact'
p2326
I3
sS'kite'
p2327
I1
sS'text'
p2328
I12
sS'charles'
p2329
I1
sS'bring'
p2330
I6
sS'bikes'
p2331
I2
sS'manchester'
p2332
I1
sS'selfblanced'
p2333
I1
sS'asylum'
p2334
I1
sS'brink'
p2335
I1
sS'decade'
p2336
I2
sS'chromebook'
p2337
I3
sS'kirula'
p2338
I1
sS'inspiring'
p2339
I2
sS'knowledge'
p2340
I2
sS'downstairs'
p2341
I1
sS'should'
p2342
I20
sS'belated'
p2343
I1
sS'emitting'
p2344
I1
sS'madmax'
p2345
I1
sS'jab'
p2346
I2
sS'hope'
p2347
I21
sS'photographs'
p2348
I6
sS'insight'
p2349
I1
sS'listened'
p2350
I2
sS'exceptional'
p2351
I1
sS'beat'
p2352
I3
sS'familiar'
p2353
I3
sS'photography'
p2354
I6
sS'helpingothers'
p2355
I1
sS'lucky'
p2356
I12
sS'bear'
p2357
I1
sS'act'
p2358
I9
sS'bean'
p2359
I1
sS'ewanna'
p2360
I2
sS'timing'
p2361
I2
sS'wasantha'
p2362
I1
sS'haki'
p2363
I2
sS'areas'
p2364
I11
sS'jaffna'
p2365
I1
sS'tikiri'
p2366
I2
sS'rapper'
p2367
I1
sS'taxes'
p2368
I1
sS'calling'
p2369
I7
sS'stuff'
p2370
I4
sS'frame'
p2371
I1
sS'mercedes'
p2372
I1
sS'ohio'
p2373
I1
sS'fixed'
p2374
I1
sS'experiences'
p2375
I1
sS'btw'
p2376
I1
sS'national'
p2377
I2
sS'edition'
p2378
I1
sS'theres'
p2379
I3
sS'snapchatting'
p2380
I1
sS'tuneid'
p2381
I1
sS'innovator'
p2382
I1
sS'superhero'
p2383
I2
sS'gunarathna'
p2384
I1
sS'madras'
p2385
I1
sS'nebula'
p2386
I3
sS'hihutch'
p2387
I5
sS'discounts'
p2388
I3
sS'memesrt'
p2389
I1
sS'routine'
p2390
I1
sS'ebola'
p2391
I2
sS'youll'
p2392
I5
sS'email'
p2393
I3
sS'ends'
p2394
I5
sS'explosive'
p2395
I2
sS'hameedia'
p2396
I1
sS'superior'
p2397
I1
sS'awata'
p2398
I1
sS'keels'
p2399
I5
sS'traffic'
p2400
I2
sS'interchangeable'
p2401
I1
sS'octobot'
p2402
I1
sS'selena'
p2403
I1
sS'staring'
p2404
I1
sS'instant'
p2405
I4
sS'joke'
p2406
I10
sS'invited'
p2407
I1
sS'galore'
p2408
I1
sS'assure'
p2409
I2
sS'puff'
p2410
I1
sS'swallow'
p2411
I1
sS'invites'
p2412
I1
sS'glorious'
p2413
I3
sS'comment'
p2414
I15
sS'badari'
p2415
I1
sS'cn'
p2416
I1
sS'conclude'
p2417
I1
sS'caverns'
p2418
I1
sS'bid2win'
p2419
I2
sS'laugh'
p2420
I1
sS'supercross'
p2421
I11
sS'cs'
p2422
I5
sS'ohh'
p2423
I1
sS'winning'
p2424
I26
sS'admin'
p2425
I2
sS'slasscom'
p2426
I1
sS'pouring'
p2427
I1
sS'videos'
p2428
I12
sS'transylvania'
p2429
I1
sS'powered'
p2430
I9
sS'quotas'
p2431
I1
sS'ranidus'
p2432
I1
sS'amathanna'
p2433
I1
sS'waste'
p2434
I1
sS'yesterdays'
p2435
I1
sS'uojhack'
p2436
I1
sS'am'
p2437
I2
sS'protect'
p2438
I3
sS'mircosot'
p2439
I2
sS'dinath'
p2440
I1
sS'finished'
p2441
I1
sS'graphics'
p2442
I1
sS'interuniversity'
p2443
I1
sS'fellow'
p2444
I1
sS'ibot'
p2445
I1
sS'holiday'
p2446
I14
sS'laser'
p2447
I4
sS'dualcore'
p2448
I1
sS'eyepopping'
p2449
I1
sS'value'
p2450
I7
sS'giza'
p2451
I1
sS'expiration'
p2452
I1
sS'althaf'
p2453
I1
sS'ultra'
p2454
I6
sS'discoveries'
p2455
I2
sS'neilarmstrong'
p2456
I1
sS'file'
p2457
I1
sS'chaotic'
p2458
I1
sS'squid'
p2459
I1
sS'hardware'
p2460
I2
sS'vr'
p2461
I8
sS'vs'
p2462
I18
sS'watched'
p2463
I7
sS'claimed'
p2464
I1
sS'partner'
p2465
I7
sS'superheroes'
p2466
I1
sS'tattoo'
p2467
I1
sS'lankan'
p2468
I28
sS'invisiblecloaks'
p2469
I1
sS'holi2015'
p2470
I1
sS'jaw'
p2471
I1
sS'gotha'
p2472
I1
sS'android'
p2473
I38
sS'cream'
p2474
I1
sS'teslamodel3'
p2475
I1
sS'lankas'
p2476
I3
sS'nokia'
p2477
I20
sS'drink'
p2478
I1
sS'upon'
p2479
I2
sS'markzuckerberg'
p2480
I2
sS'v5'
p2481
I1
sS'takers'
p2482
I1
sS'ces2017'
p2483
I1
sS'toshiba'
p2484
I2
sS'pooja'
p2485
I1
sS'identity'
p2486
I1
sS'diabetes'
p2487
I1
sS'softlogic'
p2488
I2
sS'off'
p2489
I20
sS'center'
p2490
I3
sS'disrupted'
p2491
I1
sS'colour'
p2492
I1
sS'hutchalwaysinternet'
p2493
I6
sS'megapack'
p2494
I1
sS'thought'
p2495
I3
sS'karanu'
p2496
I2
sS'command'
p2497
I1
sS'oops'
p2498
I1
sS'sets'
p2499
I1
sS'audio'
p2500
I1
sS'soviet'
p2501
I1
sS'srewsna'
p2502
I1
sS'latest'
p2503
I38
sS'stores'
p2504
I1
sS'otaragunawardene'
p2505
I1
sS'less'
p2506
I6
sS'moments'
p2507
I7
sS'storage'
p2508
I2
sS'fingerprint'
p2509
I1
sS'seats'
p2510
I1
sS'videoorb'
p2511
I1
sS'paul'
p2512
I1
sS'smulders'
p2513
I1
sS'nz'
p2514
I1
sS'flashlight'
p2515
I1
sS'web'
p2516
I9
sS'generous'
p2517
I1
sS'wed'
p2518
I9
sS'engage'
p2519
I1
sS'recommending'
p2520
I1
sS'day'
p2521
I128
sS'eastc'
p2522
I1
sS'add'
p2523
I1
sS'hutchbus'
p2524
I1
sS'wet'
p2525
I2
sS'match'
p2526
I22
sS'tests'
p2527
I1
sS'checking'
p2528
I1
sS'evenings'
p2529
I1
sS'increases'
p2530
I2
sS'five'
p2531
I1
sS'ruwan'
p2532
I2
sS'password'
p2533
I2
sS'fools'
p2534
I2
sS'insert'
p2535
I1
sS'atha'
p2536
I3
sS'motorola'
p2537
I3
sS'like'
p2538
I97
sS'excluding'
p2539
I1
sS'muchawaited'
p2540
I1
sS'cheesekotthu'
p2541
I1
sS'accelerating'
p2542
I2
sS'lanterns'
p2543
I1
sS'become'
p2544
I5
sS'works'
p2545
I2
sS'italian'
p2546
I1
sS'underwent'
p2547
I1
sS'footage'
p2548
I2
sS'alive'
p2549
I1
sS'ideals'
p2550
I1
sS'icemilo'
p2551
I1
sS'recommendation'
p2552
I2
sS'transport'
p2553
I1
sS'happens'
p2554
I6
sS'bet'
p2555
I2
sS'supercenters'
p2556
I1
sS'perils'
p2557
I1
sS'rainymorning'
p2558
I1
sS'telecommunications'
p2559
I3
sS'shelter'
p2560
I1
sS'ese'
p2561
I1
sS'does'
p2562
I12
sS'mode'
p2563
I2
sS'blowing'
p2564
I1
sS'selecting'
p2565
I4
sS'dehiwalamount'
p2566
I1
sS'aliciakeys'
p2567
I1
sS'stage'
p2568
I1
sS'about'
p2569
I88
sS'lifestyle'
p2570
I1
sS'justin'
p2571
I1
sS'world'
p2572
I47
sS'salasum'
p2573
I1
sS'autoplay'
p2574
I1
sS'introduces'
p2575
I2
sS'union'
p2576
I1
sS'vrellis'
p2577
I2
sS'fearless'
p2578
I1
sS'glasses'
p2579
I2
sS'software'
p2580
I2
sS'alliance'
p2581
I2
sS'childrens'
p2582
I3
sS'lunu'
p2583
I2
sS'keeps'
p2584
I2
sS'guinnesworldrecords'
p2585
I1
sS'readmill'
p2586
I1
sS'a6'
p2587
I1
sS'chronic'
p2588
I1
sS'weekends'
p2589
I1
sS'tiny'
p2590
I4
sS'roads'
p2591
I1
sS'bowlers'
p2592
I2
sS'stocks'
p2593
I1
sS'legends'
p2594
I1
sS'restricts'
p2595
I1
sS'bees'
p2596
I2
sS'economicrecovery'
p2597
I1
sS'biggest'
p2598
I15
sS'maze'
p2599
I5
sS'yrs'
p2600
I1
sS'cheeful'
p2601
I1
sS'function'
p2602
I1
sS'buy'
p2603
I17
sS'xperia'
p2604
I7
sS'chatting'
p2605
I1
sS'bus'
p2606
I7
sS'brand'
p2607
I10
sS'amity'
p2608
I1
sS'extended'
p2609
I1
sS'delivery'
p2610
I4
sS'reminds'
p2611
I1
sS'repeated'
p2612
I1
sS'construction'
p2613
I1
sS'valentinesday2019'
p2614
I1
sS'apollo'
p2615
I1
sS'shaolin'
p2616
I1
sS'count'
p2617
I1
sS'wise'
p2618
I2
sS'places'
p2619
I3
sS'dangerous'
p2620
I1
sS'j'
p2621
I2
sS'rs.75'
p2622
I2
sS'flip'
p2623
I1
sS'flir'
p2624
I1
sS'excitement'
p2625
I1
sS'levis'
p2626
I1
sS'chipset'
p2627
I1
sS'problem'
p2628
I4
sS'minutes'
p2629
I10
sS'dots'
p2630
I1
sS'recognize'
p2631
I3
sS'handset'
p2632
I1
sS'kingston'
p2633
I1
sS'festival'
p2634
I3
sS'anusha'
p2635
I1
sS'superpowers'
p2636
I2
sS'shooting'
p2637
I4
sS'campus'
p2638
I1
sS'compared'
p2639
I1
sS'corporation'
p2640
I2
sS'detail'
p2641
I2
sS'wenawada'
p2642
I1
sS'lately'
p2643
I1
sS'details'
p2644
I33
sS'sirasass7'
p2645
I2
sS'illusion'
p2646
I1
sS'dresses'
p2647
I1
sS'monday'
p2648
I17
sS'class'
p2649
I1
sS'outlets'
p2650
I4
sS'chance'
p2651
I124
sS'earthlike'
p2652
I1
sS'dinklage'
p2653
I1
sS'inspiration'
p2654
I2
sS'searches'
p2655
I1
sS'greenplanet'
p2656
I1
sS'usefull'
p2657
I1
sS'sumsung'
p2658
I1
sS'original'
p2659
I1
sS'offpeak'
p2660
I2
sS'compete'
p2661
I1
sS'kaif'
p2662
I1
sS'activism'
p2663
I1
sS'augmented'
p2664
I1
sS'worldrecord'
p2665
I1
sS'limited'
p2666
I3
sS'phonebreak'
p2667
I1
sS'magnetic'
p2668
I3
sS'all'
p2669
I150
sS'facilities'
p2670
I1
sS'sleep'
p2671
I5
sS'motocross'
p2672
I1
sS'oldest'
p2673
I1
sS'saved'
p2674
I1
sS'sciencehomework'
p2675
I1
sS'relationships'
p2676
I1
sS'tedxcolombo'
p2677
I12
sS'dailydinum'
p2678
I1
sS'paris'
p2679
I1
sS'tweet'
p2680
I15
sS'bike'
p2681
I7
sS'womensempowerment'
p2682
I1
sS'kolaveri'
p2683
I1
sS'worth'
p2684
I26
sS'googleplay'
p2685
I1
sS'rise'
p2686
I2
sS'partyb'
p2687
I1
sS'mania'
p2688
I2
sS'every'
p2689
I21
sS'jack'
p2690
I1
sS'month'
p2691
I25
sS'encounter'
p2692
I2
sS'tickets'
p2693
I67
sS'school'
p2694
I4
sS'daydream'
p2695
I1
sS'supports'
p2696
I1
sS'z10'
p2697
I1
sS'tnlonstage'
p2698
I2
sS'notifying'
p2699
I1
sS'announced'
p2700
I11
sS'shockproof'
p2701
I1
sS'n06e'
p2702
I1
sS'glued'
p2703
I1
sS'enjoy'
p2704
I15
sS'phones'
p2705
I19
sS'almond'
p2706
I1
sS'street'
p2707
I4
sS'friendships'
p2708
I1
sS'n'
p2709
I2
sS'panda'
p2710
I1
sS'machines'
p2711
I3
sS'blue'
p2712
I2
sS'microsofts'
p2713
I1
sS'bounties'
p2714
I2
sS'selected'
p2715
I4
sS'liberty'
p2716
I2
sS'above'
p2717
I1
sS'toll'
p2718
I1
sS'neat'
p2719
I2
sS'carpet'
p2720
I1
sS'officially'
p2721
I4
sS'disney'
p2722
I1
sS'told'
p2723
I1
sS'kicked'
p2724
I3
sS'festive'
p2725
I1
sS'richest'
p2726
I1
sS'pluto'
p2727
I6
sS'bangkok'
p2728
I3
sS'beck'
p2729
I1
sS'studio'
p2730
I3
sS'represented'
p2731
I1
sS'path'
p2732
I1
sS'sandisk'
p2733
I1
sS'melbourne'
p2734
I1
sS'longweekend'
p2735
I3
sS'celebration'
p2736
I4
sS'michal'
p2737
I1
sS'auction'
p2738
I1
sS'items'
p2739
I1
sS'employees'
p2740
I1
sS'changed'
p2741
I2
sS'ripphilhughes'
p2742
I1
sS'published'
p2743
I1
sS'launched'
p2744
I8
sS'smoke'
p2745
I1
sS'browsing'
p2746
I4
sS'postponed'
p2747
I1
sS'changes'
p2748
I2
sS'figure'
p2749
I2
sS'straw'
p2750
I1
sS'spooky'
p2751
I1
sS'visible'
p2752
I1
sS'kataragama'
p2753
I1
sS'total'
p2754
I2
sS'would'
p2755
I48
sS'to'
p2756
I1077
sS'hospital'
p2757
I2
sS'coins'
p2758
I2
sS'midnightpack'
p2759
I5
sS'preview'
p2760
I2
sS'musk'
p2761
I3
sS'haha'
p2762
I2
sS'award'
p2763
I2
sS'aware'
p2764
I1
sS'phone'
p2765
I126
sS'androidlollipop'
p2766
I1
sS'squad'
p2767
I1
sS'must'
p2768
I3
sS'me'
p2769
I13
sS'happyhalloween'
p2770
I1
sS'hutch'
p2771
I951
sS'join'
p2772
I5
sS'mc'
p2773
I6
sS'mb'
p2774
I4
sS'work'
p2775
I18
sS'eclipse'
p2776
I1
sS'kireemata'
p2777
I2
sS'boyce'
p2778
I1
sS'mt'
p2779
I1
sS'tinder'
p2780
I1
sS'install'
p2781
I2
sS'mr'
p2782
I1
sS'tnl'
p2783
I4
sS'my'
p2784
I11
sS'could'
p2785
I28
sS'addictive'
p2786
I1
sS'walkcar'
p2787
I1
sS'appologies'
p2788
I1
sS'india'
p2789
I7
sS'gadgets'
p2790
I4
sS'orion'
p2791
I1
sS'keep'
p2792
I18
sS'ceremony'
p2793
I4
sS'end'
p2794
I15
sS'provide'
p2795
I9
sS'puzzled'
p2796
I1
sS'nuts'
p2797
I1
sS'aamarathunga'
p2798
I1
sS'far'
p2799
I5
sS'isnt'
p2800
I10
sS'writers'
p2801
I1
sS'orcost'
p2802
I1
sS'widespread'
p2803
I1
sS'beach'
p2804
I1
sS'charging'
p2805
I7
sS'pizza'
p2806
I11
sS'fever'
p2807
I5
sS'after'
p2808
I12
sS'delicacy'
p2809
I1
sS'network.we'
p2810
I1
sS'customs'
p2811
I1
sS'jumping'
p2812
I1
sS'meaningful'
p2813
I1
sS'moratuwa'
p2814
I1
sS'howtofix'
p2815
I1
sS'facilitate'
p2816
I1
sS'appreciate'
p2817
I2
sS'greet'
p2818
I3
sS'patent'
p2819
I2
sS'ultimate'
p2820
I1
sS'enter'
p2821
I5
sS'bleurgh'
p2822
I1
sS'harlem'
p2823
I2
sS'order'
p2824
I5
sS'office'
p2825
I3
sS'over'
p2826
I30
sS'ramadan'
p2827
I10
sS'supun'
p2828
I4
sS'london'
p2829
I9
sS'innovative'
p2830
I4
sS'japan'
p2831
I4
sS'presley'
p2832
I1
sS'eid2014'
p2833
I1
sS'highlights'
p2834
I2
sS'socialmedia'
p2835
I2
sS'perahera'
p2836
I3
sS'production'
p2837
I2
sS'bedroomhaunt'
p2838
I1
sS'chromecast'
p2839
I1
sS'eventually'
p2840
I2
sS'them'
p2841
I20
sS'thel'
p2842
I1
sS'raisingly'
p2843
I2
sS'safe'
p2844
I3
sS'break'
p2845
I4
sS'wednesdays'
p2846
I1
sS'they'
p2847
I17
sS'bank'
p2848
I2
sS'shadows'
p2849
I1
sS'dongleb'
p2850
I1
sS'rocky'
p2851
I1
sS'jaffnaitweek'
p2852
I1
sS'pereraisanka'
p2853
I1
sS'rocks'
p2854
I1
sS'explode'
p2855
I2
sS'filling'
p2856
I2
sS'victory'
p2857
I4
sS'reasonable'
p2858
I2
sS'each'
p2859
I14
sS'everybodys'
p2860
I1
sS'signing'
p2861
I1
sS'lkamore'
p2862
I1
sS'dumping'
p2863
I1
sS'train'
p2864
I1
sS'celebrating'
p2865
I7
sS'huwawei'
p2866
I1
sS'hosted'
p2867
I1
sS'logo'
p2868
I3
sS'saturday'
p2869
I9
sS'reused'
p2870
I1
sS'network'
p2871
I9
sS'driving'
p2872
I2
sS'dinosaur'
p2873
I2
sS'quality'
p2874
I2
sS'cameras'
p2875
I2
sS'diesel'
p2876
I1
sS'day3'
p2877
I1
sS'trainers'
p2878
I1
sS'sukhoi'
p2879
I1
sS'strangers'
p2880
I1
sS'mayday'
p2881
I1
sS'got'
p2882
I45
sS'newly'
p2883
I3
sS'independence'
p2884
I5
sS'free'
p2885
I70
sS'admits'
p2886
I1
sS'coffeeaddict'
p2887
I1
sS'kaveen'
p2888
I1
sS'wanted'
p2889
I2
sS'lollipop'
p2890
I1
sS'videha'
p2891
I1
sS'lahiru'
p2892
I3
sS'created'
p2893
I3
sS'timelapse'
p2894
I1
sS'days'
p2895
I32
sS'local'
p2896
I1
sS'creates'
p2897
I3
sS'georgethegoldfish'
p2898
I1
sS'soda'
p2899
I1
sS'onto'
p2900
I1
sS'already'
p2901
I13
sS'coding'
p2902
I1
sS'primary'
p2903
I1
sS'wannacry'
p2904
I1
sS'another'
p2905
I11
sS'drones'
p2906
I4
sS'comic'
p2907
I1
sS'jiffry'
p2908
I1
sS'rated'
p2909
I3
sS'qbracelet'
p2910
I2
sS'akkaraipattu'
p2911
I2
sS'their'
p2912
I21
sS'tor'
p2913
I1
sS'overs'
p2914
I3
sS'top'
p2915
I6
sS'blackberry'
p2916
I2
sS'rates'
p2917
I10
sS'too'
p2918
I19
sS'dogs'
p2919
I2
sS'paridi'
p2920
I1
sS'streets'
p2921
I1
sS'onhub'
p2922
I1
sS'applekeynote'
p2923
I1
sS'tool'
p2924
I1
sS'serve'
p2925
I3
sS'took'
p2926
I1
sS'toor'
p2927
I1
sS'abandoning'
p2928
I1
sS'december'
p2929
I1
sS'target'
p2930
I2
sS'scenes'
p2931
I2
sS'wistharayakma'
p2932
I1
sS'obata'
p2933
I1
sS'iron'
p2934
I9
sS'hacking'
p2935
I1
sS'powers'
p2936
I3
sS'hologram'
p2937
I2
sS'bridge'
p2938
I4
sS'fashion'
p2939
I3
sS'ran'
p2940
I1
sS'navigate'
p2941
I1
sS'ram'
p2942
I2
sS'talking'
p2943
I5
sS'manner'
p2944
I1
sS'dadb'
p2945
I1
sS'gear'
p2946
I7
sS'rebrand'
p2947
I1
sS'strength'
p2948
I1
sS'convenient'
p2949
I2
sS'latter'
p2950
I1
sS'snow'
p2951
I2
sS'ilovescience'
p2952
I1
sS'contact'
p2953
I40
sS'luxury'
p2954
I1
sS'forces'
p2955
I1
sS'malariafree'
p2956
I2
sS'rides'
p2957
I1
sS'circles'
p2958
I1
sS'exactly'
p2959
I3
sS'prayers4paris'
p2960
I1
sS'maiden'
p2961
I2
sS'though'
p2962
I1
sS'iceland'
p2963
I1
sS'ebook'
p2964
I1
sS'germany'
p2965
I3
sS'slvsau'
p2966
I1
sS'kryptonian'
p2967
I1
sS'jean'
p2968
I1
sS'parting'
p2969
I1
sS'animators'
p2970
I1
sS'promotions'
p2971
I2
sS'doglover'
p2972
I1
sS'tanzania'
p2973
I1
sS'xfiles'
p2974
I1
sS'boyfriendd'
p2975
I1
sS'entertaining'
p2976
I1
sS'reserve'
p2977
I5
sS'contacted'
p2978
I2
sS'goodlife'
p2979
I1
sS'brief'
p2980
I1
sS'radio'
p2981
I2
sS'kalapayan'
p2982
I1
sS'earth'
p2983
I16
sS'enjoyed'
p2984
I4
sS'childishwisdom'
p2985
I1
sS'winners.1'
p2986
I1
sS'maharagama'
p2987
I3
sS'w.d'
p2988
I1
sS'claude'
p2989
I1
sS'situations'
p2990
I1
sS'deepest'
p2991
I1
sS'announce'
p2992
I5
sS'do'
p2993
I114
sS'dm'
p2994
I27
sS'popevisitsl'
p2995
I1
sS'di'
p2996
I1
sS'de'
p2997
I2
sS'watch'
p2998
I40
sS'hussain'
p2999
I1
sS'geek'
p3000
I1
sS'wedding'
p3001
I1
sS'louisck'
p3002
I1
sS'happiest'
p3003
I1
sS'dr'
p3004
I1
sS'lionelrichie'
p3005
I1
sS'runs'
p3006
I7
sS'ema'
p3007
I1
sS'countries'
p3008
I2
sS'method'
p3009
I3
sS'twice'
p3010
I1
sS'innovate2016'
p3011
I1
sS'automatic'
p3012
I1
sS'steam'
p3013
I2
sS'optimus'
p3014
I1
sS'phoneproblems'
p3015
I1
sS'gajaba'
p3016
I1
sS'inapp'
p3017
I1
sS'recieve'
p3018
I1
sS'depends'
p3019
I1
sS'worldwaterday'
p3020
I1
sS'o_o'
p3021
I1
sS'misbahulhaq'
p3022
I1
sS'away'
p3023
I16
sS'mud'
p3024
I1
sS'unable'
p3025
I1
sS'cooperation'
p3026
I1
sS'discovery'
p3027
I1
sS'we'
p3028
I171
sS'wd'
p3029
I1
sS'wc'
p3030
I1
sS'however'
p3031
I2
sS'boss'
p3032
I1
sS'toothbrush'
p3033
I2
sS'wt'
p3034
I1
sS'wear'
p3035
I2
sS'clues'
p3036
I1
sS'news'
p3037
I36
sS'packages'
p3038
I17
sS'received'
p3039
I2
sS'climate'
p3040
I1
sS'store'
p3041
I4
sS'deepavali'
p3042
I1
sS'jelly'
p3043
I2
sS'participating'
p3044
I1
sS'players'
p3045
I1
sS'merging'
p3046
I1
sS'games'
p3047
I14
sS'cod'
p3048
I1
sS'faces'
p3049
I1
sS'requests'
p3050
I1
sS'lenses'
p3051
I2
sS'eyesight'
p3052
I1
sS'tone'
p3053
I3
sS'lifeadvise'
p3054
I1
sS'character'
p3055
I2
sS'majestic'
p3056
I2
sS'subscribing'
p3057
I3
sS'uthsawaya'
p3058
I1
sS'speak'
p3059
I4
sS'conference'
p3060
I1
sS'japans'
p3061
I1
sS'srilankanfood'
p3062
I1
sS'been'
p3063
I16
sS'quickly'
p3064
I2
sS'beer'
p3065
I1
sS'belongs'
p3066
I1
sS'tizen'
p3067
I2
sS'mirigama'
p3068
I1
sS'longawaited'
p3069
I1
sS'flexible'
p3070
I1
sS'touch.feel.love'
p3071
I2
sS'a350'
p3072
I1
sS'families'
p3073
I2
sS'easy'
p3074
I11
sS'excite'
p3075
I1
sS'search'
p3076
I2
sS'smartwatch'
p3077
I8
sS'enterprises'
p3078
I1
sS'thebirthofnation'
p3079
I1
sS'kattiyath'
p3080
I1
sS'catch'
p3081
I11
sS'colored'
p3082
I2
sS'save'
p3083
I4
sS'publicly'
p3084
I1
sS'launches'
p3085
I8
sS'air'
p3086
I10
sS'aim'
p3087
I1
sS'ugliest'
p3088
I1
sS'teachers'
p3089
I1
sS'voice'
p3090
I30
sS'procedure'
p3091
I1
sS'natives'
p3092
I1
sS'aprilfools'
p3093
I1
sS'pyramid'
p3094
I1
sS'karaganima'
p3095
I1
sS'mondaywisdom'
p3096
I1
sS'crowning'
p3097
I1
sS'accessories'
p3098
I2
sS'tissue'
p3099
I1
sS'experts'
p3100
I1
sS'maliban'
p3101
I1
sS'pubstomp'
p3102
I2
sS'redmi'
p3103
I1
sS'lahriu'
p3104
I1
sS'perform'
p3105
I1
sS'suggest'
p3106
I2
sS'nobody'
p3107
I2
sS'complex'
p3108
I1
sS'several'
p3109
I1
sS'musaeus'
p3110
I1
sS'wheel'
p3111
I1
sS'pick'
p3112
I3
sS'hang'
p3113
I1
sS'rain'
p3114
I7
sS'hand'
p3115
I5
sS'adblock'
p3116
I1
sS'portal'
p3117
I1
sS'pekai'
p3118
I1
sS'possibly'
p3119
I1
sS'congrats'
p3120
I7
sS'ocean'
p3121
I1
sS'hearty'
p3122
I1
sS'greatest'
p3123
I4
sS'mathews'
p3124
I2
sS'mother'
p3125
I1
sS'hearts'
p3126
I1
sS'the'
p3127
I1389
sS'oarfish'
p3128
I1
sS'musical'
p3129
I3
sS'dads'
p3130
I1
sS'seasonal'
p3131
I1
sS'proposed'
p3132
I1
sS'true'
p3133
I7
sS'photo'
p3134
I23
sS'laptop'
p3135
I6
sS'mahelajay'
p3136
I1
sS'mandelbrot'
p3137
I1
sS'quotes'
p3138
I8
sS'thanks'
p3139
I14
sS'dopamine'
p3140
I1
sS'adding'
p3141
I2
sS'jehanr'
p3142
I1
sS'photographer'
p3143
I1
sS'shout'
p3144
I3
sS'spread'
p3145
I1
sS'rumor'
p3146
I1
sS'humanity'
p3147
I1
sS'gave'
p3148
I4
sS'jayawardenes'
p3149
I2
sS'bands'
p3150
I2
sS'ihelmet'
p3151
I3
sS'lcd'
p3152
I2
sS'advanced'
p3153
I2
sS'apart'
p3154
I1
sS'gifs'
p3155
I1
sS'gift'
p3156
I18
sS'zoom'
p3157
I2
sS'xbox'
p3158
I7
sS'avatar'
p3159
I1
sS'night'
p3160
I26
sS'icebucketchallenge'
p3161
I1
sS'security'
p3162
I1
sS'cooled'
p3163
I1
sS'spongebob'
p3164
I1
sS'understand'
p3165
I1
sS'successfully'
p3166
I2
sS'proudly'
p3167
I2
sS'born'
p3168
I2
sS'donald'
p3169
I2
sS'hassle'
p3170
I1
sS'escape'
p3171
I1
sS'doorstep'
p3172
I7
sS'congratulate'
p3173
I1
sS'humor'
p3174
I1
sS'combat'
p3175
I4
sS'purple'
p3176
I1
sS'ice'
p3177
I4
sS'rhino'
p3178
I1
sS'everything'
p3179
I13
sS'squeeze'
p3180
I1
sS'asking'
p3181
I1
sS'lg'
p3182
I9
sS'lifehacks'
p3183
I3
sS'beating'
p3184
I1
sS'adorable'
p3185
I3
sS'christmas'
p3186
I30
sS'mosquito'
p3187
I1
sS'core'
p3188
I2
sS'who'
p3189
I59
sS'pls'
p3190
I5
sS'marketing'
p3191
I1
sS'fatherinlaw'
p3192
I1
sS'discount'
p3193
I2
sS'nomophobia'
p3194
I1
sS'lamps'
p3195
I1
sS'amaradeva'
p3196
I2
sS'post'
p3197
I9
sS'coral'
p3198
I1
sS'months'
p3199
I2
sS'isight'
p3200
I1
sS'oba'
p3201
I2
sS'september2015'
p3202
I1
sS'dinner'
p3203
I2
sS'plus'
p3204
I4
sS'horizon'
p3205
I2
sS'sept'
p3206
I1
sS'fathersday2018'
p3207
I1
sS'walata'
p3208
I1
sS'aha'
p3209
I1
sS'wasting'
p3210
I1
sS'puzzle'
p3211
I1
sS'delighted'
p3212
I1
sS'bati'
p3213
I1
sS'balances'
p3214
I1
sS'device'
p3215
I13
sS'right'
p3216
I37
sS'donated'
p3217
I1
sS'balanced'
p3218
I1
sS'yanna'
p3219
I1
sS'fight'
p3220
I10
sS'gif'
p3221
I1
sS'anderson'
p3222
I1
sS'cashierfree'
p3223
I1
sS'way'
p3224
I20
sS'was'
p3225
I53
sS'war'
p3226
I5
sS'parikshkaranna'
p3227
I2
sS'wap'
p3228
I1
sS'lowest'
p3229
I4
sS'head'
p3230
I6
sS'equalityforall'
p3231
I1
sS'hotspring'
p3232
I1
sS'differences'
p3233
I1
sS'remover'
p3234
I1
sS'wireless'
p3235
I6
sS'heat'
p3236
I3
sS'hear'
p3237
I9
sS'solar'
p3238
I16
sS'hoverboard'
p3239
I4
sS'isis'
p3240
I1
sS'malaysia'
p3241
I11
sS'ancestral'
p3242
I1
sS'vivo'
p3243
I1
sS'ultrapixel'
p3244
I1
sS'supercar'
p3245
I2
sS'decorate'
p3246
I1
sS'nerdy'
p3247
I2
sS'rs75'
p3248
I1
sS'zodiac'
p3249
I1
sS'nerds'
p3250
I1
sS'socialgoodsummit'
p3251
I10
sS'mails'
p3252
I1
sS'hotter'
p3253
I3
sS'computing'
p3254
I2
sS'tesla'
p3255
I9
sS'sometime'
p3256
I1
sS'promised'
p3257
I1
sS'prayer'
p3258
I3
sS'annoying'
p3259
I1
sS'check'
p3260
I44
sS'weligama'
p3261
I1
sS'encrypt'
p3262
I1
sS'essentialphone'
p3263
I1
sS'no'
p3264
I33
sS'na'
p3265
I1
sS'when'
p3266
I39
sS'reality'
p3267
I5
sS'nx'
p3268
I1
sS'bed2'
p3269
I1
sS'tin'
p3270
I1
sS'interested'
p3271
I2
sS'holding'
p3272
I1
sS'papers'
p3273
I1
sS'test'
p3274
I14
sS'hydrogenpowered'
p3275
I1
sS'easteregg'
p3276
I1
sS'empoweredwomen'
p3277
I1
sS'scored'
p3278
I1
sS'picture'
p3279
I4
sS'piyumi'
p3280
I1
sS'brothers'
p3281
I1
sS'welcome'
p3282
I8
sS'offgrid'
p3283
I1
sS'update'
p3284
I6
sS'mightily'
p3285
I1
sS'trailers'
p3286
I2
sS'scorer'
p3287
I2
sS'scores'
p3288
I1
sS'faster'
p3289
I6
sS'australians'
p3290
I1
sS'ipadichcha'
p3291
I1
sS'together'
p3292
I6
sS'loyal'
p3293
I2
sS'lockdown'
p3294
I1
sS'pereraerrol'
p3295
I1
sS'bamba'
p3296
I1
sS'lineup'
p3297
I1
sS'others'
p3298
I8
sS'songs'
p3299
I20
sS'concept'
p3300
I2
sS'blackandwhite'
p3301
I1
sS'dance'
p3302
I2
sS'global'
p3303
I3
sS'focus'
p3304
I1
sS'spelunky'
p3305
I1
sS'graphing'
p3306
I1
sS'comments'
p3307
I1
sS'battle'
p3308
I4
sS'papertowel'
p3309
I1
sS'livetweet'
p3310
I2
sS'recharge'
p3311
I9
sS'vatsmart'
p3312
I1
sS'hurry'
p3313
I19
sS'zone'
p3314
I2
sS'wso2'
p3315
I1
sS'graph'
p3316
I1
sS'hump'
p3317
I2
sS'flash'
p3318
I1
sS'click'
p3319
I19
sS'charge'
p3320
I8
sS'fog'
p3321
I1
sS'glad'
p3322
I5
sS'rhythm'
p3323
I3
sS'discovering'
p3324
I1
sS'division'
p3325
I1
sS'softlogics'
p3326
I1
sS'wenna'
p3327
I1
sS'commausage'
p3328
I1
sS'keeping'
p3329
I1
sS'hugee'
p3330
I1
sS'tanks'
p3331
I1
sS'trouble'
p3332
I2
sS'internationalwomensday'
p3333
I1
sS'cool'
p3334
I22
sS'perceived'
p3335
I1
sS'impressive'
p3336
I3
sS'level'
p3337
I4
sS'turns'
p3338
I5
sS'posts'
p3339
I2
sS'brother'
p3340
I1
sS'p'
p3341
I10
sS'quick'
p3342
I3
sS'guy'
p3343
I5
sS'says'
p3344
I6
sS'regret'
p3345
I1
sS'peek'
p3346
I2
sS'cyber'
p3347
I2
sS'cost'
p3348
I4
sS'voucher'
p3349
I9
sS'fbivsapple'
p3350
I1
sS'takeoff'
p3351
I2
sS'port'
p3352
I1
sS'drinks'
p3353
I1
sS'shares'
p3354
I2
sS'transcontinental'
p3355
I1
sS'labadenna'
p3356
I4
sS'goes'
p3357
I3
sS'reply'
p3358
I11
sS'staff'
p3359
I2
sS'supporting'
p3360
I1
sS'explosion'
p3361
I1
sS'downloader'
p3362
I5
sS'hololens'
p3363
I2
sS'muslim'
p3364
I1
sS'water'
p3365
I14
sS'itll'
p3366
I1
sS'goldfish'
p3367
I1
sS'appears'
p3368
I2
sS'change'
p3369
I9
sS'sending'
p3370
I1
sS'oodles'
p3371
I1
sS'healthy'
p3372
I1
sS'eke'
p3373
I1
sS'vibrating'
p3374
I1
sS'eka'
p3375
I2
sS'proud'
p3376
I15
sS'cinnamon'
p3377
I1
sS'iwd2019'
p3378
I1
sS'usually'
p3379
I2
sS't20'
p3380
I9
sS'weird'
p3381
I1
sS'navigation'
p3382
I1
sS'pillow'
p3383
I1
sS'macintosh'
p3384
I1
sS'getnailedthis'
p3385
I1
sS'regardless'
p3386
I1
sS'humour'
p3387
I4
sS'extra'
p3388
I4
sS'ease.activate'
p3389
I1
sS'italiano'
p3390
I1
sS'retires'
p3391
I1
sS'fbi'
p3392
I2
sS'sledgehammer'
p3393
I1
sS'slrcamera'
p3394
I1
sS'htcs'
p3395
I1
sS'projector'
p3396
I1
sS'bury'
p3397
I1
sS'sports'
p3398
I3
sS'msn'
p3399
I1
sS'live'
p3400
I37
sS'iphone'
p3401
I39
sS'memory'
p3402
I1
sS'cuter'
p3403
I1
sS'danceparty'
p3404
I1
sS'australian'
p3405
I1
sS'today'
p3406
I86
sS'entrance'
p3407
I1
sS'abrams'
p3408
I1
sS'riot'
p3409
I1
sS'clicking'
p3410
I1
sS'hellotune'
p3411
I3
sS'chocolate'
p3412
I4
sS'teaser'
p3413
I3
sS'genelecsl'
p3414
I1
sS'edible'
p3415
I1
sS'car'
p3416
I20
sS'cat'
p3417
I3
sS'districts'
p3418
I2
sS'hardest'
p3419
I1
sS'can'
p3420
I181
sS'cal'
p3421
I1
sS'cab'
p3422
I1
sS'unconditional'
p3423
I1
sS'breeds'
p3424
I1
sS'karcz'
p3425
I1
sS'unsend'
p3426
I1
sS'valuemegapack'
p3427
I1
sS'trump'
p3428
I2
sS'stream'
p3429
I2
sS'nexus'
p3430
I5
sS'expanding'
p3431
I5
sS'chip'
p3432
I1
sS'nemo'
p3433
I2
sS'paused'
p3434
I1
sS'heard'
p3435
I7
sS'critic'
p3436
I1
sS'refine'
p3437
I1
sS'clothing'
p3438
I1
sS'spacewalking'
p3439
I1
sS'sizzling'
p3440
I2
sS'means'
p3441
I3
sS'giveaways'
p3442
I1
sS'write'
p3443
I1
sS'pituwa'
p3444
I1
sS'nonstop'
p3445
I6
sS'product'
p3446
I2
sS'bawa'
p3447
I1
sS'staircase'
p3448
I1
sS'information'
p3449
I16
sS'dive'
p3450
I1
sS'aol'
p3451
I2
sS'southern'
p3452
I1
sS'respective'
p3453
I1
sS'islamic'
p3454
I1
sS'birthday'
p3455
I19
sS'tvseries'
p3456
I2
sS'beatcancer'
p3457
I1
sS'j.j'
p3458
I1
sS'heroes'
p3459
I1
sS'indeed.learn'
p3460
I1
sS'avengers'
p3461
I4
sS'goal'
p3462
I2
sS'remember'
p3463
I16
sS'liquid'
p3464
I2
sS'wisthara'
p3465
I1
sS'inform'
p3466
I1
sS'nosed'
p3467
I1
sS'invests'
p3468
I1
sS'typical'
p3469
I1
sS'exclusive'
p3470
I1
sS'hoverbikes'
p3471
I1
sS'food'
p3472
I10
sS'indeed'
p3473
I2
sS'haircut'
p3474
I1
sS'midnight'
p3475
I10
sS'brain'
p3476
I3
sS'tablets'
p3477
I1
sS'anointing'
p3478
I1
sS'cold'
p3479
I1
sS'still'
p3480
I12
sS'birds'
p3481
I2
sS'oukitel'
p3482
I1
sS'gta'
p3483
I1
sS'enna'
p3484
I1
sS'nadeesha'
p3485
I1
sS'yamu'
p3486
I3
sS'pkgs'
p3487
I1
sS'birthdays'
p3488
I1
sS'vicinity'
p3489
I1
sS'dislikebutton'
p3490
I1
sS'civil'
p3491
I1
sS'gtr'
p3492
I1
sS'offers'
p3493
I15
sS'swans'
p3494
I1
sS'scifi'
p3495
I2
sS'non'
p3496
I3
sS'moms'
p3497
I1
sS'patient.thank'
p3498
I1
sS'introduce'
p3499
I1
sS'bound'
p3500
I1
sS'androidgo'
p3501
I1
sS'half'
p3502
I1
sS'not'
p3503
I58
sS'now'
p3504
I120
sS'discuss'
p3505
I1
sS'wont'
p3506
I4
sS'holographic'
p3507
I1
sS'equality'
p3508
I1
sS'name'
p3509
I11
sS'january'
p3510
I2
sS'drop'
p3511
I3
sS'invents'
p3512
I1
sS'azardeenunfortunately'
p3513
I1
sS'realistic'
p3514
I2
sS'realise'
p3515
I1
sS'shy'
p3516
I1
sS'entirely'
p3517
I1
sS'creature'
p3518
I1
sS'concerts'
p3519
I1
sS'em'
p3520
I3
sS'pillo'
p3521
I1
sS'gympo'
p3522
I1
sS'eh'
p3523
I1
sS'directing'
p3524
I1
sS'yeah'
p3525
I2
sS'snapshots'
p3526
I2
sS'challenges'
p3527
I1
sS'farewell'
p3528
I1
sS'begun'
p3529
I6
sS'trashdove'
p3530
I1
sS'ft'
p3531
I1
sS'happen'
p3532
I6
sS'teams'
p3533
I2
sS'obsession'
p3534
I1
sS'adequately'
p3535
I1
sS'er'
p3536
I3
sS'album'
p3537
I2
sS'shown'
p3538
I3
sS'accomplish'
p3539
I1
sS'opened'
p3540
I2
sS'space'
p3541
I20
sS'increase'
p3542
I2
sS'rs.199'
p3543
I1
sS'ranjanganaya'
p3544
I1
sS'rs.197'
p3545
I1
sS'dehiwela'
p3546
I1
sS'shows'
p3547
I6
sS'onwards'
p3548
I4
sS'theory'
p3549
I1
sS'cars'
p3550
I5
sS'excelsior'
p3551
I1
sS'apata'
p3552
I3
sS'dehiwala'
p3553
I1
sS'marine'
p3554
I2
sS'accommodation'
p3555
I2
sS'card'
p3556
I5
sS'care'
p3557
I6
sS'handunwadeemata'
p3558
I2
sS'didyouknow'
p3559
I1
sS'yup'
p3560
I1
sS'british'
p3561
I2
sS'slveng'
p3562
I1
sS'motion'
p3563
I2
sS'turn'
p3564
I4
sS'n.o.v.a'
p3565
I1
sS'place'
p3566
I11
sS'youhutchs'
p3567
I1
sS'promotion'
p3568
I2
sS'childhood'
p3569
I2
sS'spotted'
p3570
I4
sS'constantly'
p3571
I2
sS'impossibly'
p3572
I1
sS'xl'
p3573
I1
sS'revenue'
p3574
I1
sS'happywomensday2019'
p3575
I1
sS'waves'
p3576
I1
sS'yourself'
p3577
I9
sS'hutchsimperaliya'
p3578
I1
sS'xr'
p3579
I1
sS'impossible'
p3580
I4
sS'xp'
p3581
I1
sS'forwarding'
p3582
I1
sS'pokemon'
p3583
I8
sS'george'
p3584
I4
sS'size'
p3585
I2
sS'airbus'
p3586
I2
sS'earths'
p3587
I1
sS'given'
p3588
I5
sS'ian'
p3589
I1
sS'checked'
p3590
I4
sS'silent'
p3591
I1
sS'district'
p3592
I5
sS'stuck'
p3593
I23
sS'caught'
p3594
I2
sS'dawns'
p3595
I1
sS'weekdays'
p3596
I1
sS'plastic'
p3597
I1
sS'prayfornepal'
p3598
I1
sS'terrifying'
p3599
I2
sS'mp412c'
p3600
I1
sS'white'
p3601
I11
sS'west'
p3602
I2
sS'friend'
p3603
I10
sS'gives'
p3604
I5
sS'hug'
p3605
I1
sS'releases'
p3606
I1
sS'that'
p3607
I159
sS'season'
p3608
I25
sS'competetion'
p3609
I1
sS'huh'
p3610
I1
sS'hut'
p3611
I4
sS'released'
p3612
I14
sS'prosthesis'
p3613
I1
sS'periodictable'
p3614
I1
sS'x2'
p3615
I1
sS'quad'
p3616
I1
sS'thai'
p3617
I3
sS'copy'
p3618
I1
sS'holder'
p3619
I3
sS'than'
p3620
I17
sS'winslet'
p3621
I1
sS'wide'
p3622
I4
sS'television'
p3623
I1
sS'unfortunately'
p3624
I2
sS'assassinscreedorigins'
p3625
I1
sS'hsbc'
p3626
I1
sS'worldpulse'
p3627
I1
sS'legacy'
p3628
I1
sS'apples'
p3629
I2
sS'fruits'
p3630
I1
sS'cards'
p3631
I2
sS'americannative'
p3632
I1
sS'browser'
p3633
I7
sS'pre'
p3634
I2
sS'redfort'
p3635
I1
sS'register'
p3636
I8
sS'nekath'
p3637
I1
sS'pro'
p3638
I7
sS'premier'
p3639
I4
sS'breakfastinbed'
p3640
I1
sS'competition.here'
p3641
I1
sS'pastime'
p3642
I1
sS'sells'
p3643
I1
sS'recover'
p3644
I1
sS'any'
p3645
I58
sS'superman'
p3646
I1
sS'form'
p3647
I1
sS'anuradhapura'
p3648
I1
sS'hours.between'
p3649
I1
sS'ideas'
p3650
I1
sS'pallewela'
p3651
I1
sS'ideal'
p3652
I4
sS'anshayata'
p3653
I1
sS'resembling'
p3654
I1
sS'impairment'
p3655
I1
sS'wechcha'
p3656
I1
sS'surf'
p3657
I1
sS'urge'
p3658
I1
sS'begin'
p3659
I3
sS'sure'
p3660
I11
sS'multiple'
p3661
I1
sS'price'
p3662
I7
sS'daraz.lk'
p3663
I1
sS'donation'
p3664
I1
sS'importantly'
p3665
I1
sS'datacenter'
p3666
I1
sS'googlealphabet'
p3667
I1
sS'destiny'
p3668
I3
sS'forever'
p3669
I2
sS'ambatalekotte'
p3670
I1
sS'later'
p3671
I3
sS'hungry'
p3672
I2
sS'egoista'
p3673
I1
sS'premieres'
p3674
I1
sS'itn'
p3675
I2
sS'cheap'
p3676
I1
sS'internetlove'
p3677
I1
sS'discovered'
p3678
I3
sS'mashable'
p3679
I2
sS'colombo'
p3680
I24
sS'tks'
p3681
I1
sS'spacex'
p3682
I4
sS'srilankacricket'
p3683
I19
sS'geography'
p3684
I1
sS'snack'
p3685
I1
sS'title'
p3686
I3
sS'smartsharedial'
p3687
I1
sS'mothersday2018'
p3688
I1
sS'crime'
p3689
I3
sS'only'
p3690
I46
sS'wood'
p3691
I1
sS'friendsd'
p3692
I1
sS'twitterproblems'
p3693
I1
sS'closed'
p3694
I2
sS'witness'
p3695
I5
sS'duel'
p3696
I1
sS'truly'
p3697
I2
sS'cannot'
p3698
I2
sS'ssc'
p3699
I2
sS'reveal'
p3700
I1
sS'regarding'
p3701
I4
sS'awardsceremony'
p3702
I1
sS'bollywood.do'
p3703
I1
sS'dramas'
p3704
I1
sS'awaranaya'
p3705
I1
sS'jokes'
p3706
I9
sS'scots'
p3707
I1
sS'predicted'
p3708
I1
sS'googlesearch'
p3709
I3
sS'bought'
p3710
I3
sS'recharger'
p3711
I1
sS'reveals'
p3712
I1
sS'concert'
p3713
I8
sS'rmz'
p3714
I1
sS'diyatalawa'
p3715
I1
sS'signs'
p3716
I2
sS'keynote'
p3717
I1
sS'elected'
p3718
I2
sS'meters'
p3719
I1
sS'college'
p3720
I1
sS'yazmin'
p3721
I1
sS'apologies'
p3722
I1
sS'sport'
p3723
I2
sS'ability'
p3724
I3
sS'voluntary'
p3725
I1
sS'truefriends'
p3726
I1
sS'y5'
p3727
I2
sS'review'
p3728
I16
sS'opening'
p3729
I3
sS'crickethangover'
p3730
I1
sS'between'
p3731
I10
sS'developer'
p3732
I1
sS'sundayevening'
p3733
I1
sS'benchmarks'
p3734
I1
sS'unlocks'
p3735
I1
sS'tonygaskins'
p3736
I1
sS'biebers'
p3737
I1
sS'hajj'
p3738
I2
sS'by'
p3739
I124
sS'emotional'
p3740
I1
sS'article'
p3741
I6
sS'cities'
p3742
I1
sS'come'
p3743
I16
sS'pixels'
p3744
I1
sS'reaction'
p3745
I1
sS'superstar'
p3746
I1
sS'resides'
p3747
I1
sS'contract'
p3748
I1
sS'enabling'
p3749
I1
sS'doc990'
p3750
I1
sS'aura'
p3751
I1
sS'comet'
p3752
I6
sS'wheels'
p3753
I1
sS'comes'
p3754
I6
sS'duty'
p3755
I3
sS'pakistan'
p3756
I7
sS'merry'
p3757
I3
sS'color'
p3758
I3
sS'robotics'
p3759
I2
sS'period'
p3760
I4
sS'pole'
p3761
I1
sS'learning'
p3762
I1
sS'approval'
p3763
I1
sS't20s'
p3764
I1
sS'pod'
p3765
I1
sS'pongal'
p3766
I4
sS'umashankar'
p3767
I2
sS'independencedayresurgence'
p3768
I1
sS'turkey'
p3769
I1
sS'esports'
p3770
I5
sS'informed'
p3771
I4
sS'malala'
p3772
I1
sS'odel'
p3773
I2
sS'lifeb'
p3774
I1
sS'peaceful'
p3775
I5
sS'helicopter'
p3776
I1
sS'featuring'
p3777
I3
sS'engine'
p3778
I1
sS'direction'
p3779
I1
sS'disclosing'
p3780
I1
sS'robbed'
p3781
I1
sS'elvis'
p3782
I1
sS'andrew'
p3783
I1
sS'language'
p3784
I2
sS'tamil'
p3785
I4
sS'champions'
p3786
I4
sS'paying'
p3787
I4
sS'hughes'
p3788
I1
sS'spiderman'
p3789
I1
sS'shopc'
p3790
I1
sS'cash'
p3791
I19
sS'arnold'
p3792
I1
sS'nugegoda'
p3793
I4
sS'cast'
p3794
I1
sS'jayawardene'
p3795
I1
sS'eid'
p3796
I4
sS'challengers'
p3797
I1
sS'shops'
p3798
I3
sS'taking'
p3799
I7
sS'soil'
p3800
I1
sS'metric'
p3801
I1
sS'telephone'
p3802
I2
sS'couples'
p3803
I1
sS'good'
p3804
I24
sS'drug'
p3805
I1
sS'astrobiologist'
p3806
I1
sS'stickers'
p3807
I2
sS'ship'
p3808
I1
sS'worry'
p3809
I5
sS'helmet'
p3810
I1
sS'develop'
p3811
I3
sS'etc'
p3812
I1
sS'alphabet'
p3813
I3
sS'granted'
p3814
I1
sS'bowl'
p3815
I1
sS'trip'
p3816
I9
sS'ceo'
p3817
I5
sS'bermuda'
p3818
I1
sS'inquiry'
p3819
I2
sS'triangles'
p3820
I1
sS'lite'
p3821
I1
sS'events'
p3822
I3
sS'status'
p3823
I2
sS'finish'
p3824
I2
sS'barefoot'
p3825
I1
sS'centuries'
p3826
I3
sS'screenshot'
p3827
I1
sS'sambandawa'
p3828
I1
sS'downloads'
p3829
I1
sS'director'
p3830
I2
sS'favorites'
p3831
I1
sS'sumudu'
p3832
I1
sS'cartoon'
p3833
I1
sS'handson'
p3834
I3
sS'theater'
p3835
I2
sS'charges'
p3836
I1
sS'charger'
p3837
I2
sS'rupee'
p3838
I2
sS'kungfu'
p3839
I1
sS'magical'
p3840
I1
sS'without'
p3841
I11
sS'model'
p3842
I4
sS'modem'
p3843
I1
sS'researchers'
p3844
I1
sS'charged'
p3845
I1
sS'taxi'
p3846
I1
sS'stevemartin'
p3847
I1
sS'tip'
p3848
I3
sS'toby'
p3849
I1
sS'valuable'
p3850
I1
sS'kanapitalanguage'
p3851
I2
sS'relevant'
p3852
I3
sS'kill'
p3853
I1
sS'solarpowered'
p3854
I1
sS'handdryer'
p3855
I1
sS'touch'
p3856
I12
sS'speed'
p3857
I15
sS'ps4'
p3858
I2
sS'blow'
p3859
I2
sS'announcement'
p3860
I1
sS'death'
p3861
I1
sS'widest'
p3862
I3
sS'hint'
p3863
I3
sS'seems'
p3864
I12
sS'except'
p3865
I1
sS'kamburugamuwa'
p3866
I1
sS'desktop'
p3867
I1
sS'lets'
p3868
I16
sS'setting'
p3869
I1
sS'bigger'
p3870
I2
sS'versa'
p3871
I1
sS'thoughts'
p3872
I7
sS'struck'
p3873
I4
sS'momentum'
p3874
I1
sS'real'
p3875
I12
sS'spectacular'
p3876
I2
sS'read'
p3877
I4
sS'amd'
p3878
I2
sS'gonna'
p3879
I4
sS'leapfrog'
p3880
I1
sS'worldsend'
p3881
I1
sS'politely'
p3882
I1
sS'stunt'
p3883
I1
sS'accepted'
p3884
I1
sS'lady'
p3885
I2
sS'azky'
p3886
I1
sS'outlet'
p3887
I4
sS'frolic'
p3888
I1
sS'fortune'
p3889
I1
sS'iphone8'
p3890
I2
sS'iphone6'
p3891
I10
sS'ankayen'
p3892
I1
sS'nissan'
p3893
I2
sS'iphone5'
p3894
I3
sS'bracelet'
p3895
I1
sS'miracle'
p3896
I1
sS'benefit'
p3897
I2
sS't'
p3898
I1
sS'recalls'
p3899
I1
sS'qualityc'
p3900
I1
sS'reduced'
p3901
I1
sS'flytxt'
p3902
I1
sS'pacific'
p3903
I2
sS'oscars'
p3904
I1
sS'cruz'
p3905
I1
sS'alwayswere'
p3906
I1
sS'sticktogether'
p3907
I1
sS'aladha'
p3908
I1
sS'viral'
p3909
I1
sS'satuday'
p3910
I1
sS'mood'
p3911
I11
sS'recorded'
p3912
I1
sS'moon'
p3913
I2
sS'oneliners'
p3914
I1
sS'provider'
p3915
I2
sS'nerdyjoke'
p3916
I1
sS'football'
p3917
I3
sS'business'
p3918
I1
sS'asap'
p3919
I17
sS'communicate'
p3920
I2
sS'sajjad'
p3921
I2
sS'uneasy'
p3922
I1
sS'mondaymotivation'
p3923
I2
sS'exciting'
p3924
I20
sS'on'
p3925
I317
sS'ol'
p3926
I1
sS'ok'
p3927
I2
sS'depps'
p3928
I1
sS'oh'
p3929
I5
sS'jeep'
p3930
I1
sS'of'
p3931
I584
sS'sri'
p3932
I72
sS'discussed'
p3933
I1
sS'anarcute'
p3934
I1
sS'thousands'
p3935
I1
sS'stand'
p3936
I81
sS'underway'
p3937
I1
sS'dongleto'
p3938
I1
sS'os'
p3939
I5
sS'or'
p3940
I99
sS'ladies'
p3941
I1
sS'cambridge'
p3942
I1
sS'communication'
p3943
I2
sS'youd'
p3944
I3
sS'snapchat'
p3945
I11
sS'authorities'
p3946
I1
sS'determine'
p3947
I1
sS'heated'
p3948
I1
sS'operator'
p3949
I2
sS'actually'
p3950
I9
sS'your'
p3951
I561
sS'intervention'
p3952
I2
sS'stare'
p3953
I1
sS'neymar'
p3954
I1
sS'guinnessbook'
p3955
I1
sS'mngt'
p3956
I1
sS'log'
p3957
I1
sS'prepare'
p3958
I1
sS'area'
p3959
I6
sS'whales'
p3960
I2
sS'stoppage'
p3961
I1
sS'there'
p3962
I23
sS'bloodmoon'
p3963
I1
sS'lol'
p3964
I6
sS'start'
p3965
I15
sS'cats'
p3966
I2
sS'low'
p3967
I3
sS'lot'
p3968
I5
sS'cultures'
p3969
I1
sS'valley'
p3970
I1
sS'energy'
p3971
I7
sS'hindi'
p3972
I1
sS'iphone6news'
p3973
I1
sS'handsfree'
p3974
I1
sS'amongst'
p3975
I1
sS'idea'
p3976
I3
sS'slvsind'
p3977
I5
sS'multitasking'
p3978
I1
sS'trying'
p3979
I1
sS'longer'
p3980
I3
sS'lionsgate'
p3981
I1
sS'circulation'
p3982
I1
sS'stanford'
p3983
I1
sS'ti4'
p3984
I1
sS'tones'
p3985
I1
sS'internationalcoffeeday'
p3986
I1
sS'iphonesupport'
p3987
I1
sS'grass'
p3988
I2
sS'toilet'
p3989
I1
sS'cinema'
p3990
I3
sS'sales'
p3991
I1
sS'cbs'
p3992
I1
sS'g300'
p3993
I2
sS'westworld'
p3994
I1
sS'aces'
p3995
I1
sS'acer'
p3996
I3
sS'final4'
p3997
I1
sS'moves'
p3998
I1
sS'hospitals'
p3999
I2
sS'innings'
p4000
I2
sS'receive'
p4001
I8
sS'vinci'
p4002
I2
sS'yoi'
p4003
I1
sS'saikrisna'
p4004
I1
sS'ringtone'
p4005
I1
sS'housework'
p4006
I1
sS'valid'
p4007
I10
sS'breakfast'
p4008
I5
sS'you'
p4009
I943
sS'weekendisover'
p4010
I1
sS'gaining'
p4011
I1
sS'championship'
p4012
I3
sS'brucelee'
p4013
I2
sS'symbol'
p4014
I1
sS'finale'
p4015
I1
sS'catcircles'
p4016
I1
sS'wadath'
p4017
I1
sS'peak'
p4018
I2
sS'coverage'
p4019
I21
sS'included'
p4020
I1
sS'spouse'
p4021
I1
sS'finals'
p4022
I3
sS'pool'
p4023
I1
sS'building'
p4024
I5
sS'booked'
p4025
I1
sS'poson'
p4026
I8
sS'calls'
p4027
I17
sS'wife'
p4028
I1
sS'invest'
p4029
I2
sS'wifi'
p4030
I8
sS'vines'
p4031
I1
sS'callc'
p4032
I1
sS'callb'
p4033
I1
sS'overseas'
p4034
I2
sS'fallout'
p4035
I2
sS'crumpled'
p4036
I1
sS'nepal'
p4037
I2
sS'chinese'
p4038
I1
sS'hinahinne'
p4039
I1
sS'bull'
p4040
I1
sS'seals'
p4041
I1
sS'surgical'
p4042
I1
sS'winnings'
p4043
I1
sS'deadline'
p4044
I1
sS'lgs'
p4045
I1
sS'dish'
p4046
I1
sS'follow'
p4047
I26
sS'everyones'
p4048
I1
sS'religious'
p4049
I3
sS'kutcher'
p4050
I1
sS'glimpse'
p4051
I2
sS'batches'
p4052
I1
sS'corps'
p4053
I1
sS'quaran'
p4054
I2
sS'thursday'
p4055
I1
sS'program'
p4056
I1
sS'sustain'
p4057
I1
sS'presentation'
p4058
I1
sS'jimmycarter'
p4059
I1
sS'hill'
p4060
I7
sS'washroom'
p4061
I1
sS'woman'
p4062
I4
sS'worse'
p4063
I1
sS'song'
p4064
I16
sS'very'
p4065
I25
sS'horror'
p4066
I1
sS'faq'
p4067
I1
sS'mph'
p4068
I1
sS'ouch'
p4069
I1
sS'antigravity'
p4070
I1
sS'smartphones'
p4071
I10
sS'fan'
p4072
I6
sS'xiaomis'
p4073
I1
sS'decide'
p4074
I2
sS'sony'
p4075
I9
sS'ticket'
p4076
I11
sS'segway'
p4077
I1
sS'treating'
p4078
I1
sS'list'
p4079
I8
sS'ramadanalerts'
p4080
I1
sS'viber'
p4081
I3
sS'manike'
p4082
I1
sS'bravia'
p4083
I2
sS'throbbing'
p4084
I1
sS'blackout'
p4085
I1
sS'oscar'
p4086
I1
sS'instagram'
p4087
I18
sS'ten'
p4088
I1
sS'rainyday'
p4089
I4
sS'tea'
p4090
I1
sS'skiing'
p4091
I1
sS'rate'
p4092
I3
sS'invention'
p4093
I2
sS'design'
p4094
I1
sS'avurudu'
p4095
I33
sS'functioning'
p4096
I2
sS'hamper'
p4097
I1
sS'what'
p4098
I105
sS'darkness'
p4099
I1
sS'investing'
p4100
I1
sS'sun'
p4101
I9
sS'eminent'
p4102
I1
sS'thickness'
p4103
I1
sS'public'
p4104
I3
sS'version'
p4105
I13
sS'cinemas'
p4106
I2
sS'racing'
p4107
I4
sS'iraj'
p4108
I5
sS'devoted'
p4109
I1
sS'answers'
p4110
I2
sS'modular'
p4111
I1
sS'yummy'
p4112
I1
sS'oneplus5launch'
p4113
I1
sS'strong'
p4114
I5
sS'observing'
p4115
I2
sS'tragedy'
p4116
I1
sS'social'
p4117
I19
sS'ganudenu'
p4118
I1
sS'ahead'
p4119
I4
sS'yugan'
p4120
I1
sS'allows'
p4121
I1
sS'wenath'
p4122
I1
sS'amount'
p4123
I5
sS'options'
p4124
I1
sS'llap'
p4125
I1
sS'warslike'
p4126
I1
sS'deyata'
p4127
I1
sS'family'
p4128
I5
sS'ereader'
p4129
I1
sS'suddenly'
p4130
I1
sS'screens'
p4131
I3
sS'ask'
p4132
I4
sS'startup'
p4133
I3
sS'youa'
p4134
I1
sS'rises'
p4135
I2
sS'khan'
p4136
I2
sS'takes'
p4137
I6
sS'almost'
p4138
I6
sS'taken'
p4139
I7
sS'branded'
p4140
I8
sS'pixar'
p4141
I1
sS'midweekholiday'
p4142
I2
sS'turbo'
p4143
I1
sS'knows'
p4144
I3
sS'operators'
p4145
I1
sS'motorsports'
p4146
I2
sS'stick'
p4147
I1
sS'broke'
p4148
I1
sS'known'
p4149
I4
sS'factories'
p4150
I1
sS'monikalewinsky'
p4151
I1
sS'soloists'
p4152
I1
sS'nine'
p4153
I1
sS'v'
p4154
I2
sS'history'
p4155
I5
sS'bffs'
p4156
I1
sS'hanergy'
p4157
I1
sS'smartphone'
p4158
I38
sS'airplane'
p4159
I2
sS'species'
p4160
I2
sS'motorcross'
p4161
I1
sS'avg'
p4162
I2
sS'processors'
p4163
I1
sS'rather'
p4164
I5
sS'breaking'
p4165
I3
sS'occasionally'
p4166
I1
sS'picturesc'
p4167
I1
sS'unearthly'
p4168
I1
sS'acknowledging'
p4169
I1
sS'okay'
p4170
I1
sS'tried'
p4171
I8
sS'gurusinghes'
p4172
I1
sS'sneak'
p4173
I2
sS'panoramic'
p4174
I1
sS'fb'
p4175
I7
sS'disable'
p4176
I1
sS'lighting'
p4177
I1
sS'is__'
p4178
I2
sS'ff'
p4179
I1
sS'syria'
p4180
I1
sS'ironman'
p4181
I1
sS'skyfall'
p4182
I1
sS'a'
p4183
I777
sS'short'
p4184
I4
sS'hugsies'
p4185
I1
sS'overnight'
p4186
I1
sS'anytime'
p4187
I6
sS'telephones'
p4188
I1
sS'hobbit'
p4189
I2
sS'banks'
p4190
I1
sS'rentals'
p4191
I1
sS'dream'
p4192
I2
sS'balloon'
p4193
I2
sS'funkey'
p4194
I2
sS'slvsban'
p4195
I1
sS'help'
p4196
I15
sS'september'
p4197
I12
sS'flowers'
p4198
I3
sS'rhinos'
p4199
I1
sS'mission'
p4200
I9
sS'held'
p4201
I15
sS'thermal'
p4202
I2
sS'scientist'
p4203
I2
sS'mcdonalds'
p4204
I1
sS'heli'
p4205
I1
sS'inquiries'
p4206
I1
sS'islam'
p4207
I4
sS'style'
p4208
I1
sS'blast'
p4209
I1
sS'but'
p4210
I26
sS'exact'
p4211
I1
sS'solving'
p4212
I1
sS'beyonce'
p4213
I1
sS'fruitful'
p4214
I1
sS'parts'
p4215
I1
sS'stephen'
p4216
I1
sS'might'
p4217
I19
sS'episodevii'
p4218
I1
sS'evening'
p4219
I6
sS'return'
p4220
I6
sS'ya'
p4221
I1
sS'hyperloop'
p4222
I1
sS'predator'
p4223
I3
sS'anticipated'
p4224
I2
sS'ces'
p4225
I3
sS'hackathon'
p4226
I2
sS'bollywood'
p4227
I3
sS'superbb'
p4228
I1
sS'instructions'
p4229
I5
sS'blueticks'
p4230
I1
sS'fully'
p4231
I8
sS'gud'
p4232
I1
sS'freebies'
p4233
I1
sS'did'
p4234
I17
sS'tantalize2014'
p4235
I9
sS'fairy'
p4236
I1
sS'friendship'
p4237
I1
sS'trailer'
p4238
I18
sS'heavy'
p4239
I5
sS'neil'
p4240
I1
sS'generation'
p4241
I2
sS'hakiyi'
p4242
I1
sS'ball'
p4243
I1
sS'expect'
p4244
I2
sS'loops'
p4245
I1
sS'organised'
p4246
I2
sS'beyond'
p4247
I4
sS'event'
p4248
I17
sS'leave'
p4249
I1
sS'hadith'
p4250
I2
sS'rs25'
p4251
I1
sS'miss'
p4252
I21
sS'since'
p4253
I3
sS'wolverine'
p4254
I1
sS'health'
p4255
I2
sS'hungerfacts'
p4256
I1
sS'hutch.dial'
p4257
I1
sS'issue'
p4258
I12
sS'sakasmin'
p4259
I1
sS'asu'
p4260
I1
sS'dirt'
p4261
I2
sS'ios'
p4262
I18
sS'friday'
p4263
I21
sS'headoffice'
p4264
I2
sS'azim'
p4265
I1
sS'reason'
p4266
I3
sS'base'
p4267
I1
sS'cookie'
p4268
I1
sS'put'
p4269
I3
sS'phd'
p4270
I1
sS'speculation'
p4271
I1
sS'avenue'
p4272
I1
sS'opps'
p4273
I1
sS'launch'
p4274
I17
sS'americas'
p4275
I2
sS'cheering'
p4276
I1
sS'lavinia'
p4277
I2
sS'circuit'
p4278
I1
sS'heartbeat'
p4279
I1
sS'dis'
p4280
I1
sS'fallen'
p4281
I1
sS'feed'
p4282
I6
sS'dine'
p4283
I1
sS'starwars'
p4284
I3
sS'feel'
p4285
I11
sS'day.dial'
p4286
I1
sS'fancy'
p4287
I1
sS'traveled'
p4288
I1
sS'feet'
p4289
I1
sS'blank'
p4290
I1
sS'htc'
p4291
I10
sS'visions'
p4292
I1
sS'spree'
p4293
I2
sS'kathawak'
p4294
I1
sS'story'
p4295
I20
sS'ces2016'
p4296
I2
sS'interact'
p4297
I1
sS'globalhealth'
p4298
I1
sS'doomsday'
p4299
I1
sS'station'
p4300
I1
sS'storm'
p4301
I3
sS'gpu'
p4302
I1
sS'hundred'
p4303
I1
sS'jarvis'
p4304
I1
sS'mobiles'
p4305
I1
sS'selling'
p4306
I2
sS'srilankan'
p4307
I1
sS'batticaloa'
p4308
I1
sS'hotel'
p4309
I9
sS'pendants'
p4310
I1
sS'optical'
p4311
I1
sS'mondayblues'
p4312
I5
sS'fidget'
p4313
I2
sS'translation'
p4314
I1
sS'king'
p4315
I2
sS'kind'
p4316
I11
sS'double'
p4317
I4
sS'grey'
p4318
I1
sS'rs.5'
p4319
I2
sS'stall'
p4320
I1
sS'rs.3'
p4321
I1
sS'photopack'
p4322
I1
sS'kindle'
p4323
I1
sS'cleaner'
p4324
I1
sS'nismo'
p4325
I1
sS'sewawa'
p4326
I2
sS'randomly'
p4327
I2
sS'garfield'
p4328
I1
sS'kara'
p4329
I3
sS'hexagonal'
p4330
I1
sS'option'
p4331
I3
sS'lie'
p4332
I1
sS'u.s'
p4333
I1
sS'avurudda'
p4334
I1
sS'cave'
p4335
I1
sS'lit'
p4336
I1
sS'chairman'
p4337
I1
sS'finding'
p4338
I2
sS'hutchison'
p4339
I4
sS'aired'
p4340
I1
sS'towards'
p4341
I1
sS'unstuck'
p4342
I5
sS'electric'
p4343
I6
sS'inconvenience'
p4344
I13
sS'reach'
p4345
I5
sS'quota'
p4346
I5
sS'titanoboa'
p4347
I1
sS'anniversary'
p4348
I3
sS'sponsored'
p4349
I1
sS'channeling'
p4350
I2
sS'colomboyouthzone'
p4351
I1
sS'nothing'
p4352
I2
sS'seasons'
p4353
I1
sS'raving'
p4354
I1
sS'dealers'
p4355
I2
sS'mobile'
p4356
I55
sS'performances'
p4357
I1
sS'clear'
p4358
I4
sS'karanna'
p4359
I1
sS'dunkers'
p4360
I1
sS'clean'
p4361
I2
sS'usual'
p4362
I2
sS'phailin'
p4363
I1
sS'shoutout'
p4364
I1
sS'hyper'
p4365
I1
sS'birdsfruit'
p4366
I1
sS'asphalt'
p4367
I1
sS'celebrities'
p4368
I4
sS'veyron'
p4369
I1
sS'motioncontrolled'
p4370
I1
sS'hyped'
p4371
I1
sS'newest'
p4372
I5
sS'ipad'
p4373
I9
sS'awakens'
p4374
I1
sS'northern'
p4375
I1
sS'infaas'
p4376
I2
sS'airtime'
p4377
I1
sS'labagatha'
p4378
I1
sS'rx480'
p4379
I1
sS'pretty'
p4380
I4
sS'circle'
p4381
I1
sS'darwin'
p4382
I1
sS'hip'
p4383
I1
sS'his'
p4384
I20
sS'hit'
p4385
I8
sS'hiv'
p4386
I1
sS'waterproof'
p4387
I1
sS'robotcontrolled'
p4388
I1
sS'emailb'
p4389
I1
sS'grocery'
p4390
I1
sS'trees'
p4391
I1
sS'methods'
p4392
I1
sS'famous'
p4393
I9
sS'feels'
p4394
I2
sS'longest'
p4395
I2
sS'shared'
p4396
I1
sS'during'
p4397
I18
sS'nepalearthquake'
p4398
I1
sS'him'
p4399
I4
sS'sources'
p4400
I2
sS'boost'
p4401
I3
sS'mahelajayawrdene'
p4402
I1
sS'investigate'
p4403
I3
sS'dinakshie'
p4404
I1
sS'cartoons'
p4405
I4
sS'recommendations'
p4406
I1
sS'hype'
p4407
I1
sS'x'
p4408
I9
sS'wrote'
p4409
I2
sS'art'
p4410
I9
sS'pvt'
p4411
I3
sS'culture'
p4412
I1
sS'are'
p4413
I192
sS'portrait'
p4414
I3
sS'arm'
p4415
I3
sS'orangesb'
p4416
I1
sS'nailed'
p4417
I7
sS'wow'
p4418
I3
sS'nudephoto'
p4419
I1
sS'won'
p4420
I22
sS'probably'
p4421
I5
sS'nokias'
p4422
I1
sS'conditions'
p4423
I1
sS'rs.2'
p4424
I1
sS'recently'
p4425
I3
sS'creating'
p4426
I1
sS'missing'
p4427
I3
sS'sold'
p4428
I3
sS'ison'
p4429
I2
sS'succeed'
p4430
I2
sS'invisible'
p4431
I1
sS'prelude'
p4432
I1
sS'inertia'
p4433
I1
sS'league'
p4434
I2
sS'c'
p4435
I2
sS'pharellwilliams'
p4436
I1
sS'mega'
p4437
I4
sS'secrets'
p4438
I1
sS'sensitive'
p4439
I2
sS'became'
p4440
I1
sS'context'
p4441
I1
sS'buzz'
p4442
I1
sS'vault'
p4443
I1
sS'alwaysinternet'
p4444
I1
sS'finds'
p4445
I1
sS'experimental'
p4446
I1
sS'robbinwilliams'
p4447
I1
sS'flies'
p4448
I1
sS'emojitexts'
p4449
I1
sS'wasidayee'
p4450
I1
sS'hackers'
p4451
I3
sS'headed'
p4452
I2
sS'battery'
p4453
I19
sS'sweet'
p4454
I4
sS'whatever'
p4455
I1
sS'megapixel'
p4456
I2
sS'spotting'
p4457
I1
sS'likes'
p4458
I6
sS'linux'
p4459
I1
sS'written'
p4460
I1
sS'simpler'
p4461
I3
sS'spinner'
p4462
I2
sS'duo'
p4463
I1
sS'political'
p4464
I1
sS'due'
p4465
I7
sS'teacher'
p4466
I1
sS'whom'
p4467
I5
sS'parentsb'
p4468
I1
sS'whod'
p4469
I1
sS'pk'
p4470
I1
sS'wait'
p4471
I6
sS'pm'
p4472
I1
sS'affectionate'
p4473
I1
sS'lived'
p4474
I8
sS'flight'
p4475
I3
sS'packs'
p4476
I29
sS'else'
p4477
I5
sS'lives'
p4478
I1
sS'rocking'
p4479
I1
sS'dialing'
p4480
I7
sS'p3'
p4481
I1
sS'udara'
p4482
I1
sS'p6'
p4483
I1
sS'look'
p4484
I34
sS'frozen'
p4485
I1
sS'iyo'
p4486
I1
sS'karunawen'
p4487
I1
sS'while'
p4488
I13
sS'smart'
p4489
I13
sS'guide'
p4490
I6
sS'loop'
p4491
I1
sS'pack'
p4492
I49
sS'rates.get'
p4493
I1
sS'wherever'
p4494
I1
sS'n52'
p4495
I2
sS'rip'
p4496
I4
sS'disappointing'
p4497
I1
sS'rio'
p4498
I1
sS'rim'
p4499
I2
sS'terminator'
p4500
I2
sS'skype'
p4501
I5
sS'ready'
p4502
I25
sS'panasonic'
p4503
I1
sS'emoticons'
p4504
I3
sS'anymore'
p4505
I2
sS'minib'
p4506
I1
sS'ringxiety'
p4507
I1
sS'grand'
p4508
I4
sS'modification'
p4509
I1
sS'shah'
p4510
I3
sS'abcd2'
p4511
I1
sS'spears'
p4512
I1
sS'higher'
p4513
I1
sS'used'
p4514
I4
sS'bonus'
p4515
I10
sS'gallery'
p4516
I1
sS'friends'
p4517
I24
sS'holidays'
p4518
I3
sS'flown'
p4519
I1
sS'arrived'
p4520
I1
sS'user'
p4521
I2
sS'karunaratne'
p4522
I1
sS'herewego'
p4523
I1
sS'lower'
p4524
I1
sS'awayb'
p4525
I1
sS'cheer'
p4526
I3
sS'edge'
p4527
I8
sS'balannam'
p4528
I1
sS'inspirational'
p4529
I1
sS'gsm'
p4530
I2
sS'distances'
p4531
I1
sS'powering'
p4532
I4
sS'reviewed'
p4533
I3
sS'questions'
p4534
I4
sS'retired'
p4535
I1
sS'lexus'
p4536
I2
sS'prince'
p4537
I1
sS'move'
p4538
I4
sS'retirement'
p4539
I1
sS'illusions'
p4540
I1
sS'tablet'
p4541
I17
sS'auditions'
p4542
I1
sS'niluka'
p4543
I1
sS'sprinter'
p4544
I1
sS'guaranteed'
p4545
I1
sS'exclusively'
p4546
I2
sS'gema'
p4547
I1
sS'exhibition'
p4548
I2
sS'apiit'
p4549
I2
sS'christmasiscoming'
p4550
I1
sS'remaining'
p4551
I2
sS'customers'
p4552
I3
sS'ure'
p4553
I2
sS'march'
p4554
I4
sS'showing'
p4555
I2
sS'unlimited'
p4556
I3
sS'dubai'
p4557
I2
sS'lovin'
p4558
I1
sS'funtech'
p4559
I1
sS'game'
p4560
I32
sS'innovationawards'
p4561
I1
sS'wings'
p4562
I1
sS'success'
p4563
I1
sS'flappy'
p4564
I1
sS'signal'
p4565
I3
sS'multicultural'
p4566
I2
sS'heart'
p4567
I1
sS'collect'
p4568
I3
sS'airships'
p4569
I1
sS'vibrant'
p4570
I1
sS'popular'
p4571
I5
sS'awashya'
p4572
I1
sS'toastmaster'
p4573
I1
sS'essential'
p4574
I1
sS'nerdjoke'
p4575
I1
sS'fathers'
p4576
I2
sS'some'
p4577
I39
sS'streaming'
p4578
I6
sS'trends'
p4579
I3
sS'trendy'
p4580
I7
sS'r.r'
p4581
I1
sS'lifelike'
p4582
I1
sS'delivered'
p4583
I5
sS'competitions'
p4584
I3
sS'civilization'
p4585
I1
sS'retro'
p4586
I1
sS'innovation'
p4587
I1
sS'peephole'
p4588
I2
sS'muneeswaran'
p4589
I2
sS'minimal'
p4590
I1
sS'run'
p4591
I8
sS'jumps'
p4592
I1
sS'martin'
p4593
I1
sS'step'
p4594
I5
sS'lasts'
p4595
I1
sS'abroad'
p4596
I2
sS'vaccine'
p4597
I2
sS'pipeline'
p4598
I1
sS'wouldnt'
p4599
I2
sS'standalone'
p4600
I1
sS'firing'
p4601
I1
sS'simulation'
p4602
I1
sS'range'
p4603
I2
sS'dialog'
p4604
I4
sS'w510'
p4605
I1
sS'messaging'
p4606
I6
sS'idd'
p4607
I11
sS'womens'
p4608
I3
sS'shiny'
p4609
I4
sS'block'
p4610
I1
sS'seeing'
p4611
I2
sS'kepler452'
p4612
I1
sS'within'
p4613
I5
sS'carlton'
p4614
I1
sS'whiterhino'
p4615
I1
sS'asimo'
p4616
I1
sS'factor'
p4617
I1
sS'france'
p4618
I2
sS'rolls'
p4619
I2
sS'awardwinning'
p4620
I1
sS'madagascar'
p4621
I1
sS'bangladesh'
p4622
I1
sS'placing'
p4623
I1
sS'question'
p4624
I9
sS'fast'
p4625
I18
sS'heritage'
p4626
I2
sS'v5.0'
p4627
I1
sS'files'
p4628
I2
sS'mountains'
p4629
I2
sS'himself'
p4630
I2
sS'bossb'
p4631
I1
sS'registered'
p4632
I4
sS'bambalapitiya'
p4633
I2
sS'fever.subscribe'
p4634
I1
sS'russian'
p4635
I1
sS'penguin'
p4636
I1
sS'info'
p4637
I10
sS'beven'
p4638
I1
sS'livetweeting'
p4639
I1
sS'windows'
p4640
I11
sS'dehi'
p4641
I3
sS'nx500'
p4642
I1
sS'loving'
p4643
I1
sS'called'
p4644
I19
sS'hugsys'
p4645
I3
sS'uber'
p4646
I7
sS'remotecontrolled'
p4647
I1
sS'courier'
p4648
I1
sS'anver'
p4649
I1
sS'rally'
p4650
I1
sS'federico'
p4651
I1
sS'motrorola'
p4652
I1
sS'rainbow'
p4653
I1
sS'rainy'
p4654
I7
sS'batterylow'
p4655
I1
sS'rains'
p4656
I1
sS'peace'
p4657
I7
sS'towers'
p4658
I3
sS'nap'
p4659
I1
sS'recognition'
p4660
I1
sS'department'
p4661
I1
sS'pandas'
p4662
I1
sS'nice'
p4663
I2
sS'draw'
p4664
I1
sS'spectators'
p4665
I1
sS'users'
p4666
I10
sS'reportedly'
p4667
I3
sS'smiley'
p4668
I1
sS'problems'
p4669
I2
sS'xiaomi'
p4670
I1
sS'visits'
p4671
I1
sS'wickets'
p4672
I4
sS'meaning'
p4673
I3
sS'bcos'
p4674
I1
sS'samsungs'
p4675
I1
sS'heroine'
p4676
I2
sS'structure'
p4677
I1
sS'ankayak'
p4678
I3
sS'e'
p4679
I3
sS'vice'
p4680
I1
sS'required'
p4681
I1
sS'youtube'
p4682
I11
sS'orbit'
p4683
I1
sS'peeps'
p4684
I1
sS'nasa'
p4685
I14
sS'thames'
p4686
I1
sS'karma'
p4687
I1
sS'ashton'
p4688
I1
sS'overrs'
p4689
I1
sS'once'
p4690
I8
sS'sector'
p4691
I1
sS'sambandawiya'
p4692
I2
sS'steve'
p4693
I2
sS'gana'
p4694
I1
sS'believeitornot'
p4695
I1
sS'screen'
p4696
I5
sS'hireable'
p4697
I1
sS'kate'
p4698
I1
sS'issues'
p4699
I2
sS'note8'
p4700
I1
sS'commas'
p4701
I1
sS'roshan'
p4702
I4
sS'note7'
p4703
I1
sS'lka'
p4704
I569
sS'include'
p4705
I1
sS'friendly'
p4706
I1
sS'g6'
p4707
I2
sS'g5'
p4708
I1
sS'g4'
p4709
I1
sS'wished'
p4710
I3
sS'g2'
p4711
I2
sS'climatemarch'
p4712
I1
sS'kitty'
p4713
I1
sS'brainiacs'
p4714
I2
sS'wishes'
p4715
I7
sS'appstore'
p4716
I1
sS'telling'
p4717
I1
sS'yourselves'
p4718
I3
sS'malinda'
p4719
I1
sS'kurunegala'
p4720
I1
sS'gender'
p4721
I1
sS'notes'
p4722
I1
sS'michael'
p4723
I3
sS'facebooks'
p4724
I3
sS'deals'
p4725
I1
sS'oopsi'
p4726
I1
sS'concluded'
p4727
I2
sS'someday'
p4728
I1
sS'goodies'
p4729
I32
sS'lightest'
p4730
I1
sS'twitterb'
p4731
I1
sS'communions'
p4732
I1
sS'suuper'
p4733
I3
sS'fold'
p4734
I1
sS'kyliekooper'
p4735
I1
sS'umma'
p4736
I1
sS'concludes'
p4737
I2
sS'download'
p4738
I14
sS'foll'
p4739
I1
sS'makers'
p4740
I1
sS'folk'
p4741
I1
sS'rs.200'
p4742
I1
sS'flagship'
p4743
I4
sS'poke'
p4744
I1
sS'plays'
p4745
I2
sS'paintings'
p4746
I1
sS'btips'
p4747
I1
sS'gaththa'
p4748
I1
sS'find'
p4749
I22
sS'cell'
p4750
I4
sS'waiting'
p4751
I4
sS'then'
p4752
I23
sS'janani'
p4753
I1
sS'degree'
p4754
I2
sS'slvsafg'
p4755
I1
sS'mistake'
p4756
I2
sS'pushing'
p4757
I1
sS'commercial'
p4758
I4
sS'ecocapsule'
p4759
I1
sS'youngest'
p4760
I2
sS'explore'
p4761
I2
sS'z2'
p4762
I1
sS'micromax'
p4763
I2
sS'mclaren'
p4764
I2
sS'poignant'
p4765
I1
sS'products'
p4766
I2
sS'mindblowing'
p4767
I2
sS'sanga'
p4768
I2
sS'geeky'
p4769
I1
sS'sheild'
p4770
I1
sS'nearest'
p4771
I1
sS'egypt'
p4772
I1
sS'win'
p4773
I187
sS'app'
p4774
I25
sS'manage'
p4775
I2
sS'addressed'
p4776
I1
sS'api'
p4777
I1
sS'apn'
p4778
I1
sS'motor'
p4779
I3
sS'apply'
p4780
I2
sS'gimmick'
p4781
I1
sS'apa'
p4782
I5
sS'egg'
p4783
I1
sS'cloud'
p4784
I5
sS'ape'
p4785
I1
sS'use'
p4786
I33
sS'fee'
p4787
I2
sS'from'
p4788
I228
sS'usb'
p4789
I2
sS'ticktets'
p4790
I1
sS'doodle'
p4791
I1
sS'frogs'
p4792
I1
sS'depicted'
p4793
I1
sS'camera'
p4794
I18
sS'coldplay'
p4795
I1
sS'crab'
p4796
I1
sS'vehicle'
p4797
I2
sS'gokart'
p4798
I1
sS'panel'
p4799
I1
sS'supercross2017'
p4800
I1
sS'sort'
p4801
I2
sS'fridayplans'
p4802
I1
sS'started'
p4803
I14
sS'becomes'
p4804
I2
sS'musician'
p4805
I1
sS'visibility'
p4806
I1
sS'andinnovative'
p4807
I1
sS'mozilla'
p4808
I1
sS'mitsubishi'
p4809
I1
sS'women'
p4810
I2
sS'annoy'
p4811
I1
sS'announcing'
p4812
I3
sS'ride'
p4813
I4
sS'lkais'
p4814
I1
sS'anywhere'
p4815
I7
sS'crossed'
p4816
I1
sS'universe'
p4817
I2
sS'meet'
p4818
I21
sS'performed'
p4819
I1
sS'control'
p4820
I3
sS'beijing'
p4821
I1
sS'unveiled'
p4822
I11
sS'gataluwa'
p4823
I5
sS'pad'
p4824
I2
sS'halloween'
p4825
I5
sS'sudu'
p4826
I1
sS'imaging'
p4827
I1
sS'tag'
p4828
I18
sS'hilton'
p4829
I1
sS'something'
p4830
I8
sS'tab'
p4831
I2
sS'tac'
p4832
I1
sS'wonderful'
p4833
I7
sS'protip'
p4834
I1
sS'made'
p4835
I22
sS'papare'
p4836
I3
sS'taj'
p4837
I3
sS'tak'
p4838
I2
sS'sir'
p4839
I1
sS'united'
p4840
I1
sS'guru'
p4841
I2
sS'six'
p4842
I2
sS'located'
p4843
I1
sS'galle'
p4844
I4
sS'healthforall'
p4845
I1
sS'instead'
p4846
I3
sS'panic'
p4847
I1
sS'sim'
p4848
I27
sS'attend'
p4849
I1
sS'premasara'
p4850
I1
sS'wrist'
p4851
I1
sS'records'
p4852
I1
sS'introduced'
p4853
I2
sS'sculptures'
p4854
I1
sS'earthhour'
p4855
I1
sS'light'
p4856
I5
sS'wwii'
p4857
I1
sS'preparing'
p4858
I1
sS'beauties'
p4859
I1
sS'closely'
p4860
I2
sS'jensinelarsen'
p4861
I1
sS'poking'
p4862
I2
sS'astronomical'
p4863
I1
sS'own'
p4864
I17
sS'including'
p4865
I2
sS'looks'
p4866
I16
sS'cruise'
p4867
I1
sS'mentioned'
p4868
I1
sS'amds'
p4869
I1
sS'EMO_POS'
p4870
I148
sS'underwater'
p4871
I1
sS'outer'
p4872
I1
sS'rectify'
p4873
I1
sS'sudara'
p4874
I1
sS'choose'
p4875
I4
sS'orange'
p4876
I1
sS'covered'
p4877
I13
sS'bye'
p4878
I1
sS'hoffman'
p4879
I1
sS'pixel'
p4880
I9
sS'flex'
p4881
I3
sS'richness'
p4882
I1
sS'auto'
p4883
I1
sS'practice'
p4884
I1
sS'reindeers'
p4885
I1
sS'hands'
p4886
I9
sS'sweety'
p4887
I1
sS'expendables'
p4888
I1
sS'handy'
p4889
I1
sS'successor'
p4890
I1
sS'worlds'
p4891
I31
sS'kiribathgoda'
p4892
I1
sS'edit'
p4893
I1
sS'university'
p4894
I2
sS'feast'
p4895
I1
sS'unpredictable'
p4896
I1
sS'slide'
p4897
I1
sS'doesnt'
p4898
I3
sS'rockets'
p4899
I1
sS'vodafone'
p4900
I1
sS'bills'
p4901
I13
sS'gadot'
p4902
I1
sS'edisonb'
p4903
I1
sS'globe'
p4904
I1
sS'unbelievable'
p4905
I1
sS'related'
p4906
I3
sS'bluetooth'
p4907
I1
sS'measure'
p4908
I1
sS'our'
p4909
I155
sS'skateboarding'
p4910
I1
sS'special'
p4911
I21
sS'out'
p4912
I114
sS'xplay'
p4913
I1
sS'confess'
p4914
I1
sS'autopilot'
p4915
I2
sS'funky'
p4916
I4
sS'memes'
p4917
I1
sS'cause'
p4918
I1
sS'dontworry'
p4919
I1
sS'dictionary'
p4920
I3
sS'ipod'
p4921
I1
sS'withdrawal'
p4922
I1
sS'bleaching'
p4923
I1
sS'sustainable'
p4924
I1
sS'completely'
p4925
I1
sS'balimata'
p4926
I1
sS'loveandotherdrugs'
p4927
I1
sS'philip'
p4928
I1
sS'wookie'
p4929
I1
sS'g'
p4930
I5
sS'crashed'
p4931
I1
sS'times'
p4932
I11
sS'conversation'
p4933
I2
sS'shred'
p4934
I1
sS'ironthrone'
p4935
I1
sS'ltd'
p4936
I2
sS'timed'
p4937
I1
sS'brightsaturday'
p4938
I1
sS'timeb'
p4939
I1
sS'mankind'
p4940
I1
sS'blogger'
p4941
I2
sS'powerful'
p4942
I2
sS'rectifying'
p4943
I1
sS'warcraft'
p4944
I1
sS'refer'
p4945
I2
sS'captains'
p4946
I1
sS'guardiansofthegalaxy'
p4947
I1
sS'cricketers'
p4948
I1
sS'umbrellas'
p4949
I1
sS'destinations'
p4950
I1
sS'management'
p4951
I1
sS'argentavis'
p4952
I1
sS'unknown'
p4953
I1
sS'cargills'
p4954
I14
sS'grow'
p4955
I2
sS'attach'
p4956
I1
sS'attack'
p4957
I1
sS'anaemia'
p4958
I1
sS'googleinside'
p4959
I1
sS'perfectly'
p4960
I3
sS'piyath'
p4961
I1
sS'beard'
p4962
I1
sS'sundaymorning'
p4963
I2
sS'shell'
p4964
I1
sS'savetheearth'
p4965
I1
sS'doomed'
p4966
I1
sS'lochana'
p4967
I1
sS'socialgoodsummit2014'
p4968
I2
sS'tenmmoc'
p4969
I1
sS'disguised'
p4970
I1
sS'regards'
p4971
I1
sS'marians'
p4972
I3
sS'bieber'
p4973
I1
sS'july'
p4974
I9
sS'institution'
p4975
I1
sS'updating'
p4976
I1
sS'now.hutch'
p4977
I1
sS'photograph'
p4978
I10
sS'lamborghini'
p4979
I3
sS'ben'
p4980
I1
sS'mcash'
p4981
I1
sS'conscious'
p4982
I1
sS'bed'
p4983
I7
sS'bee'
p4984
I2
sS'patients'
p4985
I1
sS'maybe'
p4986
I4
sS'sculpture'
p4987
I2
sS'encore'
p4988
I1
sS'robocop'
p4989
I2
sS'carrots'
p4990
I1
sS'p.m'
p4991
I1
sS'close'
p4992
I5
sS'need'
p4993
I25
sS'north'
p4994
I1
sS'rouy'
p4995
I1
sS'able'
p4996
I3
sS'telescope'
p4997
I1
sS'bourne'
p4998
I1
sS'relatives'
p4999
I1
sS'instantly.limited'
p5000
I1
sS'a.i.based'
p5001
I1
sS'intense.check'
p5002
I1
sS'which'
p5003
I18
sS'tala'
p5004
I1
sS'blades'
p5005
I2
sS'sequel'
p5006
I1
sS'theatres'
p5007
I1
sS'clash'
p5008
I1
sS'aww'
p5009
I1
sS'expires'
p5010
I1
sS'dutch'
p5011
I1
sS'wicket'
p5012
I3
sS'connected'
p5013
I12
sS'preparations'
p5014
I1
sS'why'
p5015
I26
sS'cellphone'
p5016
I2
sS'hh'
p5017
I1
sS'looked'
p5018
I1
sS'se'
p5019
I1
sS'pictures'
p5020
I6
sS'pst'
p5021
I1
sS'dena'
p5022
I1
sS'awasthawaka'
p5023
I1
sS'ho'
p5024
I1
sS'tear'
p5025
I1
sS'stormfly'
p5026
I1
sS'encrypted'
p5027
I1
sS'downlink'
p5028
I1
sS'anyway'
p5029
I1
sS'nights'
p5030
I1
sS'planning'
p5031
I4
sS'parked'
p5032
I1
sS'fear'
p5033
I3
sS'darkest'
p5034
I1
sS'feat'
p5035
I1
sS'partners'
p5036
I9
sS'ha'
p5037
I4
sS'based'
p5038
I3
sS'mumbai'
p5039
I1
sS'winner'
p5040
I9
sS'brighten'
p5041
I1
sS'virgo'
p5042
I1
sS'brighter'
p5043
I1
sS'newyear'
p5044
I2
sS'fuel'
p5045
I1
sS'islandwide'
p5046
I4
sS'achieve'
p5047
I1
sS'watching'
p5048
I6
sS'funeyfun'
p5049
I5
sS'michigan'
p5050
I1
sS'hambantota'
p5051
I1
sS'dota2championship'
p5052
I1
sS'wetha'
p5053
I2
sS'payphone'
p5054
I2
sS'ones'
p5055
I10
sS'redeem'
p5056
I9
sS'words'
p5057
I5
sS'consecutive'
p5058
I2
sS'compute'
p5059
I1
sS'years'
p5060
I20
sS'chips'
p5061
I2
sS'inception'
p5062
I1
sS'endless'
p5063
I1
sS'evolution'
p5064
I1
sS'glory'
p5065
I1
sS'ended'
p5066
I2
sS'rs.3599'
p5067
I1
sS'married'
p5068
I1
sS'tuned'
p5069
I15
sS'qc'
p5070
I1
sS'she'
p5071
I3
sS'queries'
p5072
I1
sS'tunes'
p5073
I35
sS'tagger'
p5074
I1
sS'grab'
p5075
I3
sS'zigo'
p5076
I3
sS'futuristic'
p5077
I1
sS'view'
p5078
I3
sS'funey'
p5079
I5
sS'europe'
p5080
I2
sS'official'
p5081
I10
sS'prayers'
p5082
I1
sS'acquired'
p5083
I1
sS'mohammedhafeez'
p5084
I1
sS'computer'
p5085
I4
sS'epasinghe'
p5086
I1
sS'gmail'
p5087
I2
sS'closer'
p5088
I4
sS'icona5'
p5089
I1
sS'luv'
p5090
I1
sS'superb'
p5091
I1
sS'xray'
p5092
I1
sS'genius'
p5093
I1
sS'state'
p5094
I2
sS'correctly'
p5095
I1
sS'lui'
p5096
I1
sS'sundayafternoon'
p5097
I1
sS'kashing'
p5098
I1
sS'publishers'
p5099
I1
sS'danuwath'
p5100
I1
sS'jobbs'
p5101
I1
sS'foldable'
p5102
I1
sS'joy'
p5103
I3
sS'job'
p5104
I1
sS'key'
p5105
I1
sS'police'
p5106
I1
sS'precious'
p5107
I4
sS'swift'
p5108
I1
sS'bendable'
p5109
I2
sS'monitor'
p5110
I2
sS'hits'
p5111
I2
sS'weeks'
p5112
I7
sS'career'
p5113
I3
sS'minds'
p5114
I2
sS'postpaid'
p5115
I2
sS'april'
p5116
I9
sS'tactical'
p5117
I1
sS'zeepro'
p5118
I1
sS'safely'
p5119
I1
sS'commando'
p5120
I6
sS'grounds'
p5121
I1
sS'wall'
p5122
I5
sS'tuesday'
p5123
I1
sS'wonder'
p5124
I4
sS'walk'
p5125
I2
sS'subscribe'
p5126
I13
sS'thankyousanga'
p5127
I3
sS'table'
p5128
I2
sS'quit'
p5129
I1
sS'yay'
p5130
I4
sS'motorbike'
p5131
I1
sS'platform'
p5132
I1
sS'addition'
p5133
I2
sS'buffs'
p5134
I1
sS'quiz'
p5135
I26
sS'reindeer'
p5136
I1
sS'treat'
p5137
I1
sS'pilibandawa'
p5138
I1
sS'mariorun'
p5139
I3
sS'mike'
p5140
I1
sS'ranganaherath'
p5141
I1
sS'controlled'
p5142
I3
sS'wanna'
p5143
I3
sS'verizon'
p5144
I3
sS'both'
p5145
I2
sS'releasing'
p5146
I2
sS'hmm'
p5147
I2
sS'ours'
p5148
I1
sS'hmd'
p5149
I1
sS'present'
p5150
I1
sS'novel'
p5151
I1
sS'harder'
p5152
I1
sS'will'
p5153
I176
sS'stunning'
p5154
I1
sS'wild'
p5155
I1
sS'instantly'
p5156
I2
sS'toothbrushes'
p5157
I1
sS'ringing'
p5158
I2
sS'thus'
p5159
I1
sS'surface'
p5160
I5
sS'hearted'
p5161
I1
sS'bucks'
p5162
I2
sS'foreign'
p5163
I1
sS'capture'
p5164
I4
sS'began'
p5165
I1
sS'buddhist'
p5166
I1
sS'cross'
p5167
I1
sS'strange'
p5168
I1
sS'largest'
p5169
I15
sS'inch'
p5170
I2
sS'party'
p5171
I3
sS'fanatics'
p5172
I1
sS'promo'
p5173
I7
sS'premiere'
p5174
I3
sS'automation'
p5175
I1
sS'student'
p5176
I1
sS'fierce'
p5177
I1
sS'pedal'
p5178
I1
sS'whale'
p5179
I3
sS'dheere'
p5180
I2
sS'lobby'
p5181
I4
sS'rift'
p5182
I2
sS'lunch'
p5183
I3
sS'i'
p5184
I27
sS'contest'
p5185
I2
sS'well'
p5186
I32
sS'drone'
p5187
I4
sS'english'
p5188
I1
sS'pilimathalawa'
p5189
I1
sS'load'
p5190
I3
sS'rocket'
p5191
I4
sS'accurate'
p5192
I1
sS'facebook'
p5193
I90
sS'recap'
p5194
I1
sS'batteries'
p5195
I1
sS'mistakes'
p5196
I2
sS'distant'
p5197
I2
sS'virtual'
p5198
I1
sS'happiness'
p5199
I2
sS'narahenpita'
p5200
I1
sS'twilight'
p5201
I1
sS'supply'
p5202
I1
sS'book'
p5203
I30
sS'extends'
p5204
I1
sS'usage'
p5205
I3
sS'balloons'
p5206
I1
sS'acted'
p5207
I1
sS'kick'
p5208
I1
sS'iphone5s'
p5209
I1
sS'ahamed'
p5210
I1
sS'meteor'
p5211
I1
sS'howto'
p5212
I1
sS'recharging'
p5213
I1
sS'know'
p5214
I91
sS'facial'
p5215
I1
sS'immediately'
p5216
I1
sS'thebeast'
p5217
I2
sS'microsd'
p5218
I2
sS'metroemall'
p5219
I3
sS'loss'
p5220
I2
sS'lincoln'
p5221
I1
sS'helpful'
p5222
I1
sS'lost'
p5223
I2
sS'ring'
p5224
I5
sS'loses'
p5225
I1
sS'roti'
p5226
I1
sS'payments'
p5227
I2
sS'james'
p5228
I2
sS'ravi'
p5229
I1
sS'page'
p5230
I26
sS'timeline'
p5231
I1
sS'thedarkknightrises'
p5232
I1
sS'because'
p5233
I5
sS'sequence'
p5234
I1
sS'twitter'
p5235
I19
sS'village'
p5236
I1
sS'searching'
p5237
I1
sS'library'
p5238
I1
sS'tempered'
p5239
I1
sS'platforms'
p5240
I1
sS'shes'
p5241
I1
sS'home'
p5242
I12
sS'peter'
p5243
I1
sS'hutch3g'
p5244
I67
sS'leaf'
p5245
I1
sS'sambandayen'
p5246
I2
sS'dekak'
p5247
I1
sS'coders'
p5248
I1
sS'bowling'
p5249
I2
sS'expansion'
p5250
I2
sS'mostwanted'
p5251
I1
sS'easysolution'
p5252
I1
sS'datadansla'
p5253
I1
sS'throne'
p5254
I2
sS'quarter'
p5255
I1
sS'rare'
p5256
I1
sS'carried'
p5257
I2
sS'getting'
p5258
I28
sS'freedom'
p5259
I2
sS'asha'
p5260
I2
sS'recognized'
p5261
I2
sS'compatible'
p5262
I2
sS'swear'
p5263
I1
sS'tongue'
p5264
I1
sS'tgif'
p5265
I1
sS'celebrations'
p5266
I3
sS'final'
p5267
I8
sS'kotte'
p5268
I1
sS'headphone'
p5269
I1
sS'weather'
p5270
I4
sS'hotline'
p5271
I1
sS'brush'
p5272
I1
sS'secretive'
p5273
I1
sS'couldnt'
p5274
I2
sS'whos'
p5275
I3
sS'ontherise'
p5276
I1
sS'networking'
p5277
I1
sS'minines'
p5278
I1
sS'pc'
p5279
I9
sS'transfer'
p5280
I1
sS'cantina'
p5281
I1
sS'apps'
p5282
I11
sS'kidding'
p5283
I2
sS'yaelmaguire'
p5284
I1
sS'sithuwili'
p5285
I1
sS'menka'
p5286
I1
sS'vat'
p5287
I14
sS'negombo'
p5288
I1
sS'ghost'
p5289
I15
sS'cricket'
p5290
I33
sS'rs.250'
p5291
I1
sS'hp'
p5292
I2
sS'hu'
p5293
I2
sS'volume'
p5294
I1
sS'callingb'
p5295
I1
sS'hi'
p5296
I96
sS'gain'
p5297
I1
sS'kandy'
p5298
I3
sS'automated'
p5299
I3
sS'highest'
p5300
I4
sS'eat'
p5301
I1
sS'hd'
p5302
I3
sS'he'
p5303
I5
sS'donanjana'
p5304
I1
sS'dmd'
p5305
I1
sS'whether'
p5306
I2
sS'politics'
p5307
I1
sS'signed'
p5308
I1
sS'this1'
p5309
I1
sS'record'
p5310
I4
sS'below'
p5311
I12
sS'graphite'
p5312
I1
sS'airlander'
p5313
I1
sS'piece'
p5314
I1
sS'display'
p5315
I7
sS'unfolding'
p5316
I2
sS'intimidating'
p5317
I1
sS'reservations'
p5318
I2
sS'universal'
p5319
I2
sS'year'
p5320
I34
sS'maroon'
p5321
I2
sS'lumala'
p5322
I1
sS'oneline'
p5323
I1
sS'mya'
p5324
I1
sS'nolimit'
p5325
I1
sS'education'
p5326
I3
sS'sinhala'
p5327
I6
sS'cavalry'
p5328
I1
sS'rumors'
p5329
I4
sS'incredible'
p5330
I1
sS'tendulkar'
p5331
I1
sS'percent'
p5332
I1
sS'other'
p5333
I15
sS'hafeez'
p5334
I1
sS'branch'
p5335
I1
sS'contacting'
p5336
I1
sS'conclusion'
p5337
I1
sS'junk'
p5338
I2
sS'kinds'
p5339
I1
sS'june'
p5340
I5
sS'friendb'
p5341
I1
sS'stay'
p5342
I22
sS'refreshments'
p5343
I1
sS'kinda'
p5344
I2
sS'nintendo'
p5345
I9
sS'stan'
p5346
I1
sS'e303'
p5347
I1
sS'empowers'
p5348
I1
sS'gamers'
p5349
I5
sS'hnb'
p5350
I3
sS'amp'
p5351
I1
sS'samsung'
p5352
I63
sS'shiju'
p5353
I1
sS'urals'
p5354
I1
sS'supercentre'
p5355
I1
sS'expands'
p5356
I1
stp5357
Rp5358
.